(lp0
(S'/scratch/po21/jz1585/Google-ACT-256/train-new1202/train-400/0-346.png'
p1
(lp2
I0
atp3
a(S'/scratch/po21/jz1585/Google-ACT-256/train-new1202/train-400/1-1662.png'
p4
(lp5
I1
atp6
a(S'/scratch/po21/jz1585/Google-ACT-256/train-new1202/train-400/1-1390.png'
p7
(lp8
I1
atp9
a(S'/scratch/po21/jz1585/Google-ACT-256/train-new1202/train-400/1-787.png'
p10
(lp11
I1
atp12
a(S'/scratch/po21/jz1585/Google-ACT-256/train-new1202/train-400/1-788.png'
p13
(lp14
I1
atp15
a(S'/scratch/po21/jz1585/Google-ACT-256/train-new1202/train-400/0-1180.png'
p16
(lp17
I0
atp18
a(S'/scratch/po21/jz1585/Google-ACT-256/train-new1202/train-400/0-960.png'
p19
(lp20
I0
atp21
a(S'/scratch/po21/jz1585/Google-ACT-256/train-new1202/train-400/1-1718.png'
p22
(lp23
I1
atp24
a(S'/scratch/po21/jz1585/Google-ACT-256/train-new1202/train-400/0-638.png'
p25
(lp26
I0
atp27
a(S'/scratch/po21/jz1585/Google-ACT-256/train-new1202/train-400/1-1576.png'
p28
(lp29
I1
atp30
a(S'/scratch/po21/jz1585/Google-ACT-256/train-new1202/train-400/0-963.png'
p31
(lp32
I0
atp33
a(S'/scratch/po21/jz1585/Google-ACT-256/train-new1202/train-400/1-1690.png'
p34
(lp35
I1
atp36
a(S'/scratch/po21/jz1585/Google-ACT-256/train-new1202/train-400/0-1422.png'
p37
(lp38
I0
atp39
a(S'/scratch/po21/jz1585/Google-ACT-256/train-new1202/train-400/0-835.png'
p40
(lp41
I0
atp42
a(S'/scratch/po21/jz1585/Google-ACT-256/train-new1202/train-400/0-361.png'
p43
(lp44
I0
atp45
a(S'/scratch/po21/jz1585/Google-ACT-256/train-new1202/train-400/1-1442.png'
p46
(lp47
I1
atp48
a(S'/scratch/po21/jz1585/Google-ACT-256/train-new1202/train-400/0-492.png'
p49
(lp50
I0
atp51
a(S'/scratch/po21/jz1585/Google-ACT-256/train-new1202/train-400/1-1715.png'
p52
(lp53
I1
atp54
a(S'/scratch/po21/jz1585/Google-ACT-256/train-new1202/train-400/0-1165.png'
p55
(lp56
I0
atp57
a(S'/scratch/po21/jz1585/Google-ACT-256/train-new1202/train-400/1-299.png'
p58
(lp59
I1
atp60
a(S'/scratch/po21/jz1585/Google-ACT-256/train-new1202/train-400/0-832.png'
p61
(lp62
I0
atp63
a(S'/scratch/po21/jz1585/Google-ACT-256/train-new1202/train-400/1-1703.png'
p64
(lp65
I1
atp66
a(S'/scratch/po21/jz1585/Google-ACT-256/train-new1202/train-400/0-870.png'
p67
(lp68
I0
atp69
a(S'/scratch/po21/jz1585/Google-ACT-256/train-new1202/train-400/0-1455.png'
p70
(lp71
I0
atp72
a(S'/scratch/po21/jz1585/Google-ACT-256/train-new1202/train-400/1-1592.png'
p73
(lp74
I1
atp75
a(S'/scratch/po21/jz1585/Google-ACT-256/train-new1202/train-400/1-302.png'
p76
(lp77
I1
atp78
a(S'/scratch/po21/jz1585/Google-ACT-256/train-new1202/train-400/1-1158.png'
p79
(lp80
I1
atp81
a(S'/scratch/po21/jz1585/Google-ACT-256/train-new1202/train-400/0-241.png'
p82
(lp83
I0
atp84
a(S'/scratch/po21/jz1585/Google-ACT-256/train-new1202/train-400/1-1163.png'
p85
(lp86
I1
atp87
a(S'/scratch/po21/jz1585/Google-ACT-256/train-new1202/train-400/1-1621.png'
p88
(lp89
I1
atp90
a(S'/scratch/po21/jz1585/Google-ACT-256/train-new1202/train-400/0-470.png'
p91
(lp92
I0
atp93
a(S'/scratch/po21/jz1585/Google-ACT-256/train-new1202/train-400/1-868.png'
p94
(lp95
I1
atp96
a(S'/scratch/po21/jz1585/Google-ACT-256/train-new1202/train-400/0-1115.png'
p97
(lp98
I0
atp99
a(S'/scratch/po21/jz1585/Google-ACT-256/train-new1202/train-400/1-107.png'
p100
(lp101
I1
atp102
a(S'/scratch/po21/jz1585/Google-ACT-256/train-new1202/train-400/1-384.png'
p103
(lp104
I1
atp105
a(S'/scratch/po21/jz1585/Google-ACT-256/train-new1202/train-400/0-319.png'
p106
(lp107
I0
atp108
a(S'/scratch/po21/jz1585/Google-ACT-256/train-new1202/train-400/0-1448.png'
p109
(lp110
I0
atp111
a(S'/scratch/po21/jz1585/Google-ACT-256/train-new1202/train-400/1-1775.png'
p112
(lp113
I1
atp114
a(S'/scratch/po21/jz1585/Google-ACT-256/train-new1202/train-400/1-702.png'
p115
(lp116
I1
atp117
a(S'/scratch/po21/jz1585/Google-ACT-256/train-new1202/train-400/1-1177.png'
p118
(lp119
I1
atp120
a(S'/scratch/po21/jz1585/Google-ACT-256/train-new1202/train-400/0-384.png'
p121
(lp122
I0
atp123
a(S'/scratch/po21/jz1585/Google-ACT-256/train-new1202/train-400/0-1252.png'
p124
(lp125
I0
atp126
a(S'/scratch/po21/jz1585/Google-ACT-256/train-new1202/train-400/0-829.png'
p127
(lp128
I0
atp129
a(S'/scratch/po21/jz1585/Google-ACT-256/train-new1202/train-400/0-1254.png'
p130
(lp131
I0
atp132
a(S'/scratch/po21/jz1585/Google-ACT-256/train-new1202/train-400/0-491.png'
p133
(lp134
I0
atp135
a(S'/scratch/po21/jz1585/Google-ACT-256/train-new1202/train-400/0-1344.png'
p136
(lp137
I0
atp138
a(S'/scratch/po21/jz1585/Google-ACT-256/train-new1202/train-400/1-525.png'
p139
(lp140
I1
atp141
a(S'/scratch/po21/jz1585/Google-ACT-256/train-new1202/train-400/0-704.png'
p142
(lp143
I0
atp144
a(S'/scratch/po21/jz1585/Google-ACT-256/train-new1202/train-400/1-1716.png'
p145
(lp146
I1
atp147
a(S'/scratch/po21/jz1585/Google-ACT-256/train-new1202/train-400/1-1835.png'
p148
(lp149
I1
atp150
a(S'/scratch/po21/jz1585/Google-ACT-256/train-new1202/train-400/0-834.png'
p151
(lp152
I0
atp153
a(S'/scratch/po21/jz1585/Google-ACT-256/train-new1202/train-400/1-1796.png'
p154
(lp155
I1
atp156
a(S'/scratch/po21/jz1585/Google-ACT-256/train-new1202/train-400/1-1594.png'
p157
(lp158
I1
atp159
a(S'/scratch/po21/jz1585/Google-ACT-256/train-new1202/train-400/1-1409.png'
p160
(lp161
I1
atp162
a(S'/scratch/po21/jz1585/Google-ACT-256/train-new1202/train-400/0-500.png'
p163
(lp164
I0
atp165
a(S'/scratch/po21/jz1585/Google-ACT-256/train-new1202/train-400/0-256.png'
p166
(lp167
I0
atp168
a(S'/scratch/po21/jz1585/Google-ACT-256/train-new1202/train-400/1-978.png'
p169
(lp170
I1
atp171
a(S'/scratch/po21/jz1585/Google-ACT-256/train-new1202/train-400/1-438.png'
p172
(lp173
I1
atp174
a(S'/scratch/po21/jz1585/Google-ACT-256/train-new1202/train-400/1-1539.png'
p175
(lp176
I1
atp177
a(S'/scratch/po21/jz1585/Google-ACT-256/train-new1202/train-400/1-1702.png'
p178
(lp179
I1
atp180
a(S'/scratch/po21/jz1585/Google-ACT-256/train-new1202/train-400/0-417.png'
p181
(lp182
I0
atp183
a(S'/scratch/po21/jz1585/Google-ACT-256/train-new1202/train-400/1-1591.png'
p184
(lp185
I1
atp186
a(S'/scratch/po21/jz1585/Google-ACT-256/train-new1202/train-400/0-680.png'
p187
(lp188
I0
atp189
a(S'/scratch/po21/jz1585/Google-ACT-256/train-new1202/train-400/0-84.png'
p190
(lp191
I0
atp192
a(S'/scratch/po21/jz1585/Google-ACT-256/train-new1202/train-400/1-1485.png'
p193
(lp194
I1
atp195
a(S'/scratch/po21/jz1585/Google-ACT-256/train-new1202/train-400/0-7.png'
p196
(lp197
I0
atp198
a(S'/scratch/po21/jz1585/Google-ACT-256/train-new1202/train-400/1-728.png'
p199
(lp200
I1
atp201
a(S'/scratch/po21/jz1585/Google-ACT-256/train-new1202/train-400/1-433.png'
p202
(lp203
I1
atp204
a(S'/scratch/po21/jz1585/Google-ACT-256/train-new1202/train-400/0-334.png'
p205
(lp206
I0
atp207
a(S'/scratch/po21/jz1585/Google-ACT-256/train-new1202/train-400/1-162.png'
p208
(lp209
I1
atp210
a(S'/scratch/po21/jz1585/Google-ACT-256/train-new1202/train-400/0-228.png'
p211
(lp212
I0
atp213
a(S'/scratch/po21/jz1585/Google-ACT-256/train-new1202/train-400/0-508.png'
p214
(lp215
I0
atp216
a(S'/scratch/po21/jz1585/Google-ACT-256/train-new1202/train-400/1-600.png'
p217
(lp218
I1
atp219
a(S'/scratch/po21/jz1585/Google-ACT-256/train-new1202/train-400/1-1482.png'
p220
(lp221
I1
atp222
a(S'/scratch/po21/jz1585/Google-ACT-256/train-new1202/train-400/1-829.png'
p223
(lp224
I1
atp225
a(S'/scratch/po21/jz1585/Google-ACT-256/train-new1202/train-400/0-620.png'
p226
(lp227
I0
atp228
a(S'/scratch/po21/jz1585/Google-ACT-256/train-new1202/train-400/0-1223.png'
p229
(lp230
I0
atp231
a(S'/scratch/po21/jz1585/Google-ACT-256/train-new1202/train-400/1-1714.png'
p232
(lp233
I1
atp234
a(S'/scratch/po21/jz1585/Google-ACT-256/train-new1202/train-400/0-138.png'
p235
(lp236
I0
atp237
a(S'/scratch/po21/jz1585/Google-ACT-256/train-new1202/train-400/1-935.png'
p238
(lp239
I1
atp240
a(S'/scratch/po21/jz1585/Google-ACT-256/train-new1202/train-400/1-777.png'
p241
(lp242
I1
atp243
a(S'/scratch/po21/jz1585/Google-ACT-256/train-new1202/train-400/0-1216.png'
p244
(lp245
I0
atp246
a(S'/scratch/po21/jz1585/Google-ACT-256/train-new1202/train-400/0-662.png'
p247
(lp248
I0
atp249
a(S'/scratch/po21/jz1585/Google-ACT-256/train-new1202/train-400/1-933.png'
p250
(lp251
I1
atp252
a(S'/scratch/po21/jz1585/Google-ACT-256/train-new1202/train-400/1-1271.png'
p253
(lp254
I1
atp255
a(S'/scratch/po21/jz1585/Google-ACT-256/train-new1202/train-400/1-1569.png'
p256
(lp257
I1
atp258
a(S'/scratch/po21/jz1585/Google-ACT-256/train-new1202/train-400/0-890.png'
p259
(lp260
I0
atp261
a(S'/scratch/po21/jz1585/Google-ACT-256/train-new1202/train-400/0-1286.png'
p262
(lp263
I0
atp264
a(S'/scratch/po21/jz1585/Google-ACT-256/train-new1202/train-400/1-416.png'
p265
(lp266
I1
atp267
a(S'/scratch/po21/jz1585/Google-ACT-256/train-new1202/train-400/1-292.png'
p268
(lp269
I1
atp270
a(S'/scratch/po21/jz1585/Google-ACT-256/train-new1202/train-400/0-1400.png'
p271
(lp272
I0
atp273
a(S'/scratch/po21/jz1585/Google-ACT-256/train-new1202/train-400/1-4.png'
p274
(lp275
I1
atp276
a(S'/scratch/po21/jz1585/Google-ACT-256/train-new1202/train-400/0-163.png'
p277
(lp278
I0
atp279
a(S'/scratch/po21/jz1585/Google-ACT-256/train-new1202/train-400/1-1186.png'
p280
(lp281
I1
atp282
a(S'/scratch/po21/jz1585/Google-ACT-256/train-new1202/train-400/1-543.png'
p283
(lp284
I1
atp285
a(S'/scratch/po21/jz1585/Google-ACT-256/train-new1202/train-400/0-464.png'
p286
(lp287
I0
atp288
a(S'/scratch/po21/jz1585/Google-ACT-256/train-new1202/train-400/0-670.png'
p289
(lp290
I0
atp291
a(S'/scratch/po21/jz1585/Google-ACT-256/train-new1202/train-400/1-1741.png'
p292
(lp293
I1
atp294
a(S'/scratch/po21/jz1585/Google-ACT-256/train-new1202/train-400/1-714.png'
p295
(lp296
I1
atp297
a(S'/scratch/po21/jz1585/Google-ACT-256/train-new1202/train-400/0-1056.png'
p298
(lp299
I0
atp300
a(S'/scratch/po21/jz1585/Google-ACT-256/train-new1202/train-400/1-294.png'
p301
(lp302
I1
atp303
a(S'/scratch/po21/jz1585/Google-ACT-256/train-new1202/train-400/1-1644.png'
p304
(lp305
I1
atp306
a(S'/scratch/po21/jz1585/Google-ACT-256/train-new1202/train-400/0-114.png'
p307
(lp308
I0
atp309
a(S'/scratch/po21/jz1585/Google-ACT-256/train-new1202/train-400/0-112.png'
p310
(lp311
I0
atp312
a(S'/scratch/po21/jz1585/Google-ACT-256/train-new1202/train-400/0-1049.png'
p313
(lp314
I0
atp315
a(S'/scratch/po21/jz1585/Google-ACT-256/train-new1202/train-400/1-425.png'
p316
(lp317
I1
atp318
a(S'/scratch/po21/jz1585/Google-ACT-256/train-new1202/train-400/1-913.png'
p319
(lp320
I1
atp321
a(S'/scratch/po21/jz1585/Google-ACT-256/train-new1202/train-400/1-1396.png'
p322
(lp323
I1
atp324
a(S'/scratch/po21/jz1585/Google-ACT-256/train-new1202/train-400/0-709.png'
p325
(lp326
I0
atp327
a(S'/scratch/po21/jz1585/Google-ACT-256/train-new1202/train-400/1-1881.png'
p328
(lp329
I1
atp330
a(S'/scratch/po21/jz1585/Google-ACT-256/train-new1202/train-400/0-1405.png'
p331
(lp332
I0
atp333
a(S'/scratch/po21/jz1585/Google-ACT-256/train-new1202/train-400/1-855.png'
p334
(lp335
I1
atp336
a(S'/scratch/po21/jz1585/Google-ACT-256/train-new1202/train-400/1-1438.png'
p337
(lp338
I1
atp339
a(S'/scratch/po21/jz1585/Google-ACT-256/train-new1202/train-400/1-150.png'
p340
(lp341
I1
atp342
a(S'/scratch/po21/jz1585/Google-ACT-256/train-new1202/train-400/0-287.png'
p343
(lp344
I0
atp345
a(S'/scratch/po21/jz1585/Google-ACT-256/train-new1202/train-400/1-564.png'
p346
(lp347
I1
atp348
a(S'/scratch/po21/jz1585/Google-ACT-256/train-new1202/train-400/0-676.png'
p349
(lp350
I0
atp351
a(S'/scratch/po21/jz1585/Google-ACT-256/train-new1202/train-400/1-141.png'
p352
(lp353
I1
atp354
a(S'/scratch/po21/jz1585/Google-ACT-256/train-new1202/train-400/1-411.png'
p355
(lp356
I1
atp357
a(S'/scratch/po21/jz1585/Google-ACT-256/train-new1202/train-400/1-1465.png'
p358
(lp359
I1
atp360
a(S'/scratch/po21/jz1585/Google-ACT-256/train-new1202/train-400/0-478.png'
p361
(lp362
I0
atp363
a(S'/scratch/po21/jz1585/Google-ACT-256/train-new1202/train-400/1-255.png'
p364
(lp365
I1
atp366
a(S'/scratch/po21/jz1585/Google-ACT-256/train-new1202/train-400/1-343.png'
p367
(lp368
I1
atp369
a(S'/scratch/po21/jz1585/Google-ACT-256/train-new1202/train-400/1-1263.png'
p370
(lp371
I1
atp372
a(S'/scratch/po21/jz1585/Google-ACT-256/train-new1202/train-400/1-1535.png'
p373
(lp374
I1
atp375
a(S'/scratch/po21/jz1585/Google-ACT-256/train-new1202/train-400/0-1239.png'
p376
(lp377
I0
atp378
a(S'/scratch/po21/jz1585/Google-ACT-256/train-new1202/train-400/0-1308.png'
p379
(lp380
I0
atp381
a(S'/scratch/po21/jz1585/Google-ACT-256/train-new1202/train-400/0-919.png'
p382
(lp383
I0
atp384
a(S'/scratch/po21/jz1585/Google-ACT-256/train-new1202/train-400/0-432.png'
p385
(lp386
I0
atp387
a(S'/scratch/po21/jz1585/Google-ACT-256/train-new1202/train-400/0-378.png'
p388
(lp389
I0
atp390
a(S'/scratch/po21/jz1585/Google-ACT-256/train-new1202/train-400/1-646.png'
p391
(lp392
I1
atp393
a(S'/scratch/po21/jz1585/Google-ACT-256/train-new1202/train-400/1-1689.png'
p394
(lp395
I1
atp396
a(S'/scratch/po21/jz1585/Google-ACT-256/train-new1202/train-400/1-1797.png'
p397
(lp398
I1
atp399
a(S'/scratch/po21/jz1585/Google-ACT-256/train-new1202/train-400/0-222.png'
p400
(lp401
I0
atp402
a(S'/scratch/po21/jz1585/Google-ACT-256/train-new1202/train-400/1-279.png'
p403
(lp404
I1
atp405
a(S'/scratch/po21/jz1585/Google-ACT-256/train-new1202/train-400/1-386.png'
p406
(lp407
I1
atp408
a(S'/scratch/po21/jz1585/Google-ACT-256/train-new1202/train-400/0-356.png'
p409
(lp410
I0
atp411
a(S'/scratch/po21/jz1585/Google-ACT-256/train-new1202/train-400/1-1682.png'
p412
(lp413
I1
atp414
a(S'/scratch/po21/jz1585/Google-ACT-256/train-new1202/train-400/1-1566.png'
p415
(lp416
I1
atp417
a(S'/scratch/po21/jz1585/Google-ACT-256/train-new1202/train-400/1-50.png'
p418
(lp419
I1
atp420
a(S'/scratch/po21/jz1585/Google-ACT-256/train-new1202/train-400/1-412.png'
p421
(lp422
I1
atp423
a(S'/scratch/po21/jz1585/Google-ACT-256/train-new1202/train-400/1-798.png'
p424
(lp425
I1
atp426
a(S'/scratch/po21/jz1585/Google-ACT-256/train-new1202/train-400/1-1580.png'
p427
(lp428
I1
atp429
a(S'/scratch/po21/jz1585/Google-ACT-256/train-new1202/train-400/0-518.png'
p430
(lp431
I0
atp432
a(S'/scratch/po21/jz1585/Google-ACT-256/train-new1202/train-400/1-1320.png'
p433
(lp434
I1
atp435
a(S'/scratch/po21/jz1585/Google-ACT-256/train-new1202/train-400/0-634.png'
p436
(lp437
I0
atp438
a(S'/scratch/po21/jz1585/Google-ACT-256/train-new1202/train-400/1-701.png'
p439
(lp440
I1
atp441
a(S'/scratch/po21/jz1585/Google-ACT-256/train-new1202/train-400/1-1825.png'
p442
(lp443
I1
atp444
a(S'/scratch/po21/jz1585/Google-ACT-256/train-new1202/train-400/0-1203.png'
p445
(lp446
I0
atp447
a(S'/scratch/po21/jz1585/Google-ACT-256/train-new1202/train-400/1-1056.png'
p448
(lp449
I1
atp450
a(S'/scratch/po21/jz1585/Google-ACT-256/train-new1202/train-400/0-1085.png'
p451
(lp452
I0
atp453
a(S'/scratch/po21/jz1585/Google-ACT-256/train-new1202/train-400/0-1238.png'
p454
(lp455
I0
atp456
a(S'/scratch/po21/jz1585/Google-ACT-256/train-new1202/train-400/0-280.png'
p457
(lp458
I0
atp459
a(S'/scratch/po21/jz1585/Google-ACT-256/train-new1202/train-400/0-1041.png'
p460
(lp461
I0
atp462
a(S'/scratch/po21/jz1585/Google-ACT-256/train-new1202/train-400/0-914.png'
p463
(lp464
I0
atp465
a(S'/scratch/po21/jz1585/Google-ACT-256/train-new1202/train-400/1-938.png'
p466
(lp467
I1
atp468
a(S'/scratch/po21/jz1585/Google-ACT-256/train-new1202/train-400/0-341.png'
p469
(lp470
I0
atp471
a(S'/scratch/po21/jz1585/Google-ACT-256/train-new1202/train-400/0-726.png'
p472
(lp473
I0
atp474
a(S'/scratch/po21/jz1585/Google-ACT-256/train-new1202/train-400/0-764.png'
p475
(lp476
I0
atp477
a(S'/scratch/po21/jz1585/Google-ACT-256/train-new1202/train-400/1-135.png'
p478
(lp479
I1
atp480
a(S'/scratch/po21/jz1585/Google-ACT-256/train-new1202/train-400/0-534.png'
p481
(lp482
I0
atp483
a(S'/scratch/po21/jz1585/Google-ACT-256/train-new1202/train-400/0-1429.png'
p484
(lp485
I0
atp486
a(S'/scratch/po21/jz1585/Google-ACT-256/train-new1202/train-400/0-1158.png'
p487
(lp488
I0
atp489
a(S'/scratch/po21/jz1585/Google-ACT-256/train-new1202/train-400/1-1704.png'
p490
(lp491
I1
atp492
a(S'/scratch/po21/jz1585/Google-ACT-256/train-new1202/train-400/0-172.png'
p493
(lp494
I0
atp495
a(S'/scratch/po21/jz1585/Google-ACT-256/train-new1202/train-400/1-633.png'
p496
(lp497
I1
atp498
a(S'/scratch/po21/jz1585/Google-ACT-256/train-new1202/train-400/0-236.png'
p499
(lp500
I0
atp501
a(S'/scratch/po21/jz1585/Google-ACT-256/train-new1202/train-400/1-120.png'
p502
(lp503
I1
atp504
a(S'/scratch/po21/jz1585/Google-ACT-256/train-new1202/train-400/0-1399.png'
p505
(lp506
I0
atp507
a(S'/scratch/po21/jz1585/Google-ACT-256/train-new1202/train-400/1-1243.png'
p508
(lp509
I1
atp510
a(S'/scratch/po21/jz1585/Google-ACT-256/train-new1202/train-400/0-1166.png'
p511
(lp512
I0
atp513
a(S'/scratch/po21/jz1585/Google-ACT-256/train-new1202/train-400/1-1474.png'
p514
(lp515
I1
atp516
a(S'/scratch/po21/jz1585/Google-ACT-256/train-new1202/train-400/0-1099.png'
p517
(lp518
I0
atp519
a(S'/scratch/po21/jz1585/Google-ACT-256/train-new1202/train-400/1-541.png'
p520
(lp521
I1
atp522
a(S'/scratch/po21/jz1585/Google-ACT-256/train-new1202/train-400/1-1296.png'
p523
(lp524
I1
atp525
a(S'/scratch/po21/jz1585/Google-ACT-256/train-new1202/train-400/1-555.png'
p526
(lp527
I1
atp528
a(S'/scratch/po21/jz1585/Google-ACT-256/train-new1202/train-400/1-435.png'
p529
(lp530
I1
atp531
a(S'/scratch/po21/jz1585/Google-ACT-256/train-new1202/train-400/0-849.png'
p532
(lp533
I0
atp534
a(S'/scratch/po21/jz1585/Google-ACT-256/train-new1202/train-400/1-812.png'
p535
(lp536
I1
atp537
a(S'/scratch/po21/jz1585/Google-ACT-256/train-new1202/train-400/1-1858.png'
p538
(lp539
I1
atp540
a(S'/scratch/po21/jz1585/Google-ACT-256/train-new1202/train-400/0-525.png'
p541
(lp542
I0
atp543
a(S'/scratch/po21/jz1585/Google-ACT-256/train-new1202/train-400/0-22.png'
p544
(lp545
I0
atp546
a(S'/scratch/po21/jz1585/Google-ACT-256/train-new1202/train-400/0-1426.png'
p547
(lp548
I0
atp549
a(S'/scratch/po21/jz1585/Google-ACT-256/train-new1202/train-400/0-692.png'
p550
(lp551
I0
atp552
a(S'/scratch/po21/jz1585/Google-ACT-256/train-new1202/train-400/1-1434.png'
p553
(lp554
I1
atp555
a(S'/scratch/po21/jz1585/Google-ACT-256/train-new1202/train-400/1-967.png'
p556
(lp557
I1
atp558
a(S'/scratch/po21/jz1585/Google-ACT-256/train-new1202/train-400/0-466.png'
p559
(lp560
I0
atp561
a(S'/scratch/po21/jz1585/Google-ACT-256/train-new1202/train-400/1-1152.png'
p562
(lp563
I1
atp564
a(S'/scratch/po21/jz1585/Google-ACT-256/train-new1202/train-400/1-618.png'
p565
(lp566
I1
atp567
a(S'/scratch/po21/jz1585/Google-ACT-256/train-new1202/train-400/1-76.png'
p568
(lp569
I1
atp570
a(S'/scratch/po21/jz1585/Google-ACT-256/train-new1202/train-400/0-490.png'
p571
(lp572
I0
atp573
a(S'/scratch/po21/jz1585/Google-ACT-256/train-new1202/train-400/1-1197.png'
p574
(lp575
I1
atp576
a(S'/scratch/po21/jz1585/Google-ACT-256/train-new1202/train-400/1-1051.png'
p577
(lp578
I1
atp579
a(S'/scratch/po21/jz1585/Google-ACT-256/train-new1202/train-400/0-543.png'
p580
(lp581
I0
atp582
a(S'/scratch/po21/jz1585/Google-ACT-256/train-new1202/train-400/1-70.png'
p583
(lp584
I1
atp585
a(S'/scratch/po21/jz1585/Google-ACT-256/train-new1202/train-400/1-350.png'
p586
(lp587
I1
atp588
a(S'/scratch/po21/jz1585/Google-ACT-256/train-new1202/train-400/1-945.png'
p589
(lp590
I1
atp591
a(S'/scratch/po21/jz1585/Google-ACT-256/train-new1202/train-400/0-199.png'
p592
(lp593
I0
atp594
a(S'/scratch/po21/jz1585/Google-ACT-256/train-new1202/train-400/1-46.png'
p595
(lp596
I1
atp597
a(S'/scratch/po21/jz1585/Google-ACT-256/train-new1202/train-400/0-1082.png'
p598
(lp599
I0
atp600
a(S'/scratch/po21/jz1585/Google-ACT-256/train-new1202/train-400/0-352.png'
p601
(lp602
I0
atp603
a(S'/scratch/po21/jz1585/Google-ACT-256/train-new1202/train-400/0-693.png'
p604
(lp605
I0
atp606
a(S'/scratch/po21/jz1585/Google-ACT-256/train-new1202/train-400/1-180.png'
p607
(lp608
I1
atp609
a(S'/scratch/po21/jz1585/Google-ACT-256/train-new1202/train-400/1-886.png'
p610
(lp611
I1
atp612
a(S'/scratch/po21/jz1585/Google-ACT-256/train-new1202/train-400/0-778.png'
p613
(lp614
I0
atp615
a(S'/scratch/po21/jz1585/Google-ACT-256/train-new1202/train-400/1-711.png'
p616
(lp617
I1
atp618
a(S'/scratch/po21/jz1585/Google-ACT-256/train-new1202/train-400/1-1314.png'
p619
(lp620
I1
atp621
a(S'/scratch/po21/jz1585/Google-ACT-256/train-new1202/train-400/0-235.png'
p622
(lp623
I0
atp624
a(S'/scratch/po21/jz1585/Google-ACT-256/train-new1202/train-400/1-1429.png'
p625
(lp626
I1
atp627
a(S'/scratch/po21/jz1585/Google-ACT-256/train-new1202/train-400/0-1396.png'
p628
(lp629
I0
atp630
a(S'/scratch/po21/jz1585/Google-ACT-256/train-new1202/train-400/1-1310.png'
p631
(lp632
I1
atp633
a(S'/scratch/po21/jz1585/Google-ACT-256/train-new1202/train-400/1-1729.png'
p634
(lp635
I1
atp636
a(S'/scratch/po21/jz1585/Google-ACT-256/train-new1202/train-400/1-1875.png'
p637
(lp638
I1
atp639
a(S'/scratch/po21/jz1585/Google-ACT-256/train-new1202/train-400/0-1359.png'
p640
(lp641
I0
atp642
a(S'/scratch/po21/jz1585/Google-ACT-256/train-new1202/train-400/0-1327.png'
p643
(lp644
I0
atp645
a(S'/scratch/po21/jz1585/Google-ACT-256/train-new1202/train-400/1-69.png'
p646
(lp647
I1
atp648
a(S'/scratch/po21/jz1585/Google-ACT-256/train-new1202/train-400/1-1444.png'
p649
(lp650
I1
atp651
a(S'/scratch/po21/jz1585/Google-ACT-256/train-new1202/train-400/1-836.png'
p652
(lp653
I1
atp654
a(S'/scratch/po21/jz1585/Google-ACT-256/train-new1202/train-400/1-1527.png'
p655
(lp656
I1
atp657
a(S'/scratch/po21/jz1585/Google-ACT-256/train-new1202/train-400/1-879.png'
p658
(lp659
I1
atp660
a(S'/scratch/po21/jz1585/Google-ACT-256/train-new1202/train-400/1-358.png'
p661
(lp662
I1
atp663
a(S'/scratch/po21/jz1585/Google-ACT-256/train-new1202/train-400/1-144.png'
p664
(lp665
I1
atp666
a(S'/scratch/po21/jz1585/Google-ACT-256/train-new1202/train-400/0-1393.png'
p667
(lp668
I0
atp669
a(S'/scratch/po21/jz1585/Google-ACT-256/train-new1202/train-400/0-1441.png'
p670
(lp671
I0
atp672
a(S'/scratch/po21/jz1585/Google-ACT-256/train-new1202/train-400/1-997.png'
p673
(lp674
I1
atp675
a(S'/scratch/po21/jz1585/Google-ACT-256/train-new1202/train-400/0-55.png'
p676
(lp677
I0
atp678
a(S'/scratch/po21/jz1585/Google-ACT-256/train-new1202/train-400/1-7.png'
p679
(lp680
I1
atp681
a(S'/scratch/po21/jz1585/Google-ACT-256/train-new1202/train-400/0-185.png'
p682
(lp683
I0
atp684
a(S'/scratch/po21/jz1585/Google-ACT-256/train-new1202/train-400/1-1723.png'
p685
(lp686
I1
atp687
a(S'/scratch/po21/jz1585/Google-ACT-256/train-new1202/train-400/1-332.png'
p688
(lp689
I1
atp690
a(S'/scratch/po21/jz1585/Google-ACT-256/train-new1202/train-400/0-1197.png'
p691
(lp692
I0
atp693
a(S'/scratch/po21/jz1585/Google-ACT-256/train-new1202/train-400/0-132.png'
p694
(lp695
I0
atp696
a(S'/scratch/po21/jz1585/Google-ACT-256/train-new1202/train-400/0-646.png'
p697
(lp698
I0
atp699
a(S'/scratch/po21/jz1585/Google-ACT-256/train-new1202/train-400/1-753.png'
p700
(lp701
I1
atp702
a(S'/scratch/po21/jz1585/Google-ACT-256/train-new1202/train-400/1-110.png'
p703
(lp704
I1
atp705
a(S'/scratch/po21/jz1585/Google-ACT-256/train-new1202/train-400/1-1740.png'
p706
(lp707
I1
atp708
a(S'/scratch/po21/jz1585/Google-ACT-256/train-new1202/train-400/1-100.png'
p709
(lp710
I1
atp711
a(S'/scratch/po21/jz1585/Google-ACT-256/train-new1202/train-400/0-1030.png'
p712
(lp713
I0
atp714
a(S'/scratch/po21/jz1585/Google-ACT-256/train-new1202/train-400/1-1232.png'
p715
(lp716
I1
atp717
a(S'/scratch/po21/jz1585/Google-ACT-256/train-new1202/train-400/1-1453.png'
p718
(lp719
I1
atp720
a(S'/scratch/po21/jz1585/Google-ACT-256/train-new1202/train-400/0-1494.png'
p721
(lp722
I0
atp723
a(S'/scratch/po21/jz1585/Google-ACT-256/train-new1202/train-400/0-1439.png'
p724
(lp725
I0
atp726
a(S'/scratch/po21/jz1585/Google-ACT-256/train-new1202/train-400/1-1508.png'
p727
(lp728
I1
atp729
a(S'/scratch/po21/jz1585/Google-ACT-256/train-new1202/train-400/1-1423.png'
p730
(lp731
I1
atp732
a(S'/scratch/po21/jz1585/Google-ACT-256/train-new1202/train-400/0-1428.png'
p733
(lp734
I0
atp735
a(S'/scratch/po21/jz1585/Google-ACT-256/train-new1202/train-400/0-111.png'
p736
(lp737
I0
atp738
a(S'/scratch/po21/jz1585/Google-ACT-256/train-new1202/train-400/1-1441.png'
p739
(lp740
I1
atp741
a(S'/scratch/po21/jz1585/Google-ACT-256/train-new1202/train-400/1-1322.png'
p742
(lp743
I1
atp744
a(S'/scratch/po21/jz1585/Google-ACT-256/train-new1202/train-400/0-1061.png'
p745
(lp746
I0
atp747
a(S'/scratch/po21/jz1585/Google-ACT-256/train-new1202/train-400/0-1161.png'
p748
(lp749
I0
atp750
a(S'/scratch/po21/jz1585/Google-ACT-256/train-new1202/train-400/0-806.png'
p751
(lp752
I0
atp753
a(S'/scratch/po21/jz1585/Google-ACT-256/train-new1202/train-400/0-484.png'
p754
(lp755
I0
atp756
a(S'/scratch/po21/jz1585/Google-ACT-256/train-new1202/train-400/1-1023.png'
p757
(lp758
I1
atp759
a(S'/scratch/po21/jz1585/Google-ACT-256/train-new1202/train-400/1-1490.png'
p760
(lp761
I1
atp762
a(S'/scratch/po21/jz1585/Google-ACT-256/train-new1202/train-400/1-878.png'
p763
(lp764
I1
atp765
a(S'/scratch/po21/jz1585/Google-ACT-256/train-new1202/train-400/0-627.png'
p766
(lp767
I0
atp768
a(S'/scratch/po21/jz1585/Google-ACT-256/train-new1202/train-400/0-575.png'
p769
(lp770
I0
atp771
a(S'/scratch/po21/jz1585/Google-ACT-256/train-new1202/train-400/1-1162.png'
p772
(lp773
I1
atp774
a(S'/scratch/po21/jz1585/Google-ACT-256/train-new1202/train-400/1-23.png'
p775
(lp776
I1
atp777
a(S'/scratch/po21/jz1585/Google-ACT-256/train-new1202/train-400/0-1008.png'
p778
(lp779
I0
atp780
a(S'/scratch/po21/jz1585/Google-ACT-256/train-new1202/train-400/1-902.png'
p781
(lp782
I1
atp783
a(S'/scratch/po21/jz1585/Google-ACT-256/train-new1202/train-400/1-1139.png'
p784
(lp785
I1
atp786
a(S'/scratch/po21/jz1585/Google-ACT-256/train-new1202/train-400/0-524.png'
p787
(lp788
I0
atp789
a(S'/scratch/po21/jz1585/Google-ACT-256/train-new1202/train-400/0-520.png'
p790
(lp791
I0
atp792
a(S'/scratch/po21/jz1585/Google-ACT-256/train-new1202/train-400/0-637.png'
p793
(lp794
I0
atp795
a(S'/scratch/po21/jz1585/Google-ACT-256/train-new1202/train-400/1-173.png'
p796
(lp797
I1
atp798
a(S'/scratch/po21/jz1585/Google-ACT-256/train-new1202/train-400/0-1255.png'
p799
(lp800
I0
atp801
a(S'/scratch/po21/jz1585/Google-ACT-256/train-new1202/train-400/0-1281.png'
p802
(lp803
I0
atp804
a(S'/scratch/po21/jz1585/Google-ACT-256/train-new1202/train-400/1-487.png'
p805
(lp806
I1
atp807
a(S'/scratch/po21/jz1585/Google-ACT-256/train-new1202/train-400/1-1229.png'
p808
(lp809
I1
atp810
a(S'/scratch/po21/jz1585/Google-ACT-256/train-new1202/train-400/0-1080.png'
p811
(lp812
I0
atp813
a(S'/scratch/po21/jz1585/Google-ACT-256/train-new1202/train-400/1-571.png'
p814
(lp815
I1
atp816
a(S'/scratch/po21/jz1585/Google-ACT-256/train-new1202/train-400/1-114.png'
p817
(lp818
I1
atp819
a(S'/scratch/po21/jz1585/Google-ACT-256/train-new1202/train-400/1-1223.png'
p820
(lp821
I1
atp822
a(S'/scratch/po21/jz1585/Google-ACT-256/train-new1202/train-400/1-1281.png'
p823
(lp824
I1
atp825
a(S'/scratch/po21/jz1585/Google-ACT-256/train-new1202/train-400/1-35.png'
p826
(lp827
I1
atp828
a(S'/scratch/po21/jz1585/Google-ACT-256/train-new1202/train-400/1-1424.png'
p829
(lp830
I1
atp831
a(S'/scratch/po21/jz1585/Google-ACT-256/train-new1202/train-400/1-105.png'
p832
(lp833
I1
atp834
a(S'/scratch/po21/jz1585/Google-ACT-256/train-new1202/train-400/0-409.png'
p835
(lp836
I0
atp837
a(S'/scratch/po21/jz1585/Google-ACT-256/train-new1202/train-400/0-630.png'
p838
(lp839
I0
atp840
a(S'/scratch/po21/jz1585/Google-ACT-256/train-new1202/train-400/0-349.png'
p841
(lp842
I0
atp843
a(S'/scratch/po21/jz1585/Google-ACT-256/train-new1202/train-400/1-1668.png'
p844
(lp845
I1
atp846
a(S'/scratch/po21/jz1585/Google-ACT-256/train-new1202/train-400/0-1401.png'
p847
(lp848
I0
atp849
a(S'/scratch/po21/jz1585/Google-ACT-256/train-new1202/train-400/1-1009.png'
p850
(lp851
I1
atp852
a(S'/scratch/po21/jz1585/Google-ACT-256/train-new1202/train-400/0-739.png'
p853
(lp854
I0
atp855
a(S'/scratch/po21/jz1585/Google-ACT-256/train-new1202/train-400/0-719.png'
p856
(lp857
I0
atp858
a(S'/scratch/po21/jz1585/Google-ACT-256/train-new1202/train-400/0-1523.png'
p859
(lp860
I0
atp861
a(S'/scratch/po21/jz1585/Google-ACT-256/train-new1202/train-400/0-1136.png'
p862
(lp863
I0
atp864
a(S'/scratch/po21/jz1585/Google-ACT-256/train-new1202/train-400/0-253.png'
p865
(lp866
I0
atp867
a(S'/scratch/po21/jz1585/Google-ACT-256/train-new1202/train-400/1-616.png'
p868
(lp869
I1
atp870
a(S'/scratch/po21/jz1585/Google-ACT-256/train-new1202/train-400/1-626.png'
p871
(lp872
I1
atp873
a(S'/scratch/po21/jz1585/Google-ACT-256/train-new1202/train-400/1-1389.png'
p874
(lp875
I1
atp876
a(S'/scratch/po21/jz1585/Google-ACT-256/train-new1202/train-400/0-813.png'
p877
(lp878
I0
atp879
a(S'/scratch/po21/jz1585/Google-ACT-256/train-new1202/train-400/1-734.png'
p880
(lp881
I1
atp882
a(S'/scratch/po21/jz1585/Google-ACT-256/train-new1202/train-400/0-116.png'
p883
(lp884
I0
atp885
a(S'/scratch/po21/jz1585/Google-ACT-256/train-new1202/train-400/0-1489.png'
p886
(lp887
I0
atp888
a(S'/scratch/po21/jz1585/Google-ACT-256/train-new1202/train-400/1-969.png'
p889
(lp890
I1
atp891
a(S'/scratch/po21/jz1585/Google-ACT-256/train-new1202/train-400/0-954.png'
p892
(lp893
I0
atp894
a(S'/scratch/po21/jz1585/Google-ACT-256/train-new1202/train-400/0-859.png'
p895
(lp896
I0
atp897
a(S'/scratch/po21/jz1585/Google-ACT-256/train-new1202/train-400/0-115.png'
p898
(lp899
I0
atp900
a(S'/scratch/po21/jz1585/Google-ACT-256/train-new1202/train-400/0-619.png'
p901
(lp902
I0
atp903
a(S'/scratch/po21/jz1585/Google-ACT-256/train-new1202/train-400/1-286.png'
p904
(lp905
I1
atp906
a(S'/scratch/po21/jz1585/Google-ACT-256/train-new1202/train-400/0-1248.png'
p907
(lp908
I0
atp909
a(S'/scratch/po21/jz1585/Google-ACT-256/train-new1202/train-400/0-1072.png'
p910
(lp911
I0
atp912
a(S'/scratch/po21/jz1585/Google-ACT-256/train-new1202/train-400/0-962.png'
p913
(lp914
I0
atp915
a(S'/scratch/po21/jz1585/Google-ACT-256/train-new1202/train-400/1-492.png'
p916
(lp917
I1
atp918
a(S'/scratch/po21/jz1585/Google-ACT-256/train-new1202/train-400/0-1131.png'
p919
(lp920
I0
atp921
a(S'/scratch/po21/jz1585/Google-ACT-256/train-new1202/train-400/1-1330.png'
p922
(lp923
I1
atp924
a(S'/scratch/po21/jz1585/Google-ACT-256/train-new1202/train-400/1-375.png'
p925
(lp926
I1
atp927
a(S'/scratch/po21/jz1585/Google-ACT-256/train-new1202/train-400/1-1238.png'
p928
(lp929
I1
atp930
a(S'/scratch/po21/jz1585/Google-ACT-256/train-new1202/train-400/1-904.png'
p931
(lp932
I1
atp933
a(S'/scratch/po21/jz1585/Google-ACT-256/train-new1202/train-400/0-1011.png'
p934
(lp935
I0
atp936
a(S'/scratch/po21/jz1585/Google-ACT-256/train-new1202/train-400/1-1318.png'
p937
(lp938
I1
atp939
a(S'/scratch/po21/jz1585/Google-ACT-256/train-new1202/train-400/0-1096.png'
p940
(lp941
I0
atp942
a(S'/scratch/po21/jz1585/Google-ACT-256/train-new1202/train-400/0-940.png'
p943
(lp944
I0
atp945
a(S'/scratch/po21/jz1585/Google-ACT-256/train-new1202/train-400/1-1221.png'
p946
(lp947
I1
atp948
a(S'/scratch/po21/jz1585/Google-ACT-256/train-new1202/train-400/0-703.png'
p949
(lp950
I0
atp951
a(S'/scratch/po21/jz1585/Google-ACT-256/train-new1202/train-400/1-198.png'
p952
(lp953
I1
atp954
a(S'/scratch/po21/jz1585/Google-ACT-256/train-new1202/train-400/0-884.png'
p955
(lp956
I0
atp957
a(S'/scratch/po21/jz1585/Google-ACT-256/train-new1202/train-400/1-1432.png'
p958
(lp959
I1
atp960
a(S'/scratch/po21/jz1585/Google-ACT-256/train-new1202/train-400/0-1118.png'
p961
(lp962
I0
atp963
a(S'/scratch/po21/jz1585/Google-ACT-256/train-new1202/train-400/0-566.png'
p964
(lp965
I0
atp966
a(S'/scratch/po21/jz1585/Google-ACT-256/train-new1202/train-400/0-626.png'
p967
(lp968
I0
atp969
a(S'/scratch/po21/jz1585/Google-ACT-256/train-new1202/train-400/0-446.png'
p970
(lp971
I0
atp972
a(S'/scratch/po21/jz1585/Google-ACT-256/train-new1202/train-400/0-1368.png'
p973
(lp974
I0
atp975
a(S'/scratch/po21/jz1585/Google-ACT-256/train-new1202/train-400/1-916.png'
p976
(lp977
I1
atp978
a(S'/scratch/po21/jz1585/Google-ACT-256/train-new1202/train-400/0-796.png'
p979
(lp980
I0
atp981
a(S'/scratch/po21/jz1585/Google-ACT-256/train-new1202/train-400/1-1752.png'
p982
(lp983
I1
atp984
a(S'/scratch/po21/jz1585/Google-ACT-256/train-new1202/train-400/0-273.png'
p985
(lp986
I0
atp987
a(S'/scratch/po21/jz1585/Google-ACT-256/train-new1202/train-400/0-335.png'
p988
(lp989
I0
atp990
a(S'/scratch/po21/jz1585/Google-ACT-256/train-new1202/train-400/1-710.png'
p991
(lp992
I1
atp993
a(S'/scratch/po21/jz1585/Google-ACT-256/train-new1202/train-400/1-689.png'
p994
(lp995
I1
atp996
a(S'/scratch/po21/jz1585/Google-ACT-256/train-new1202/train-400/1-794.png'
p997
(lp998
I1
atp999
a(S'/scratch/po21/jz1585/Google-ACT-256/train-new1202/train-400/0-1187.png'
p1000
(lp1001
I0
atp1002
a(S'/scratch/po21/jz1585/Google-ACT-256/train-new1202/train-400/0-618.png'
p1003
(lp1004
I0
atp1005
a(S'/scratch/po21/jz1585/Google-ACT-256/train-new1202/train-400/1-1596.png'
p1006
(lp1007
I1
atp1008
a(S'/scratch/po21/jz1585/Google-ACT-256/train-new1202/train-400/1-197.png'
p1009
(lp1010
I1
atp1011
a(S'/scratch/po21/jz1585/Google-ACT-256/train-new1202/train-400/1-952.png'
p1012
(lp1013
I1
atp1014
a(S'/scratch/po21/jz1585/Google-ACT-256/train-new1202/train-400/1-1863.png'
p1015
(lp1016
I1
atp1017
a(S'/scratch/po21/jz1585/Google-ACT-256/train-new1202/train-400/1-1760.png'
p1018
(lp1019
I1
atp1020
a(S'/scratch/po21/jz1585/Google-ACT-256/train-new1202/train-400/0-718.png'
p1021
(lp1022
I0
atp1023
a(S'/scratch/po21/jz1585/Google-ACT-256/train-new1202/train-400/1-563.png'
p1024
(lp1025
I1
atp1026
a(S'/scratch/po21/jz1585/Google-ACT-256/train-new1202/train-400/1-929.png'
p1027
(lp1028
I1
atp1029
a(S'/scratch/po21/jz1585/Google-ACT-256/train-new1202/train-400/0-288.png'
p1030
(lp1031
I0
atp1032
a(S'/scratch/po21/jz1585/Google-ACT-256/train-new1202/train-400/0-651.png'
p1033
(lp1034
I0
atp1035
a(S'/scratch/po21/jz1585/Google-ACT-256/train-new1202/train-400/0-1146.png'
p1036
(lp1037
I0
atp1038
a(S'/scratch/po21/jz1585/Google-ACT-256/train-new1202/train-400/1-140.png'
p1039
(lp1040
I1
atp1041
a(S'/scratch/po21/jz1585/Google-ACT-256/train-new1202/train-400/0-1456.png'
p1042
(lp1043
I0
atp1044
a(S'/scratch/po21/jz1585/Google-ACT-256/train-new1202/train-400/0-929.png'
p1045
(lp1046
I0
atp1047
a(S'/scratch/po21/jz1585/Google-ACT-256/train-new1202/train-400/0-412.png'
p1048
(lp1049
I0
atp1050
a(S'/scratch/po21/jz1585/Google-ACT-256/train-new1202/train-400/1-113.png'
p1051
(lp1052
I1
atp1053
a(S'/scratch/po21/jz1585/Google-ACT-256/train-new1202/train-400/1-515.png'
p1054
(lp1055
I1
atp1056
a(S'/scratch/po21/jz1585/Google-ACT-256/train-new1202/train-400/1-1713.png'
p1057
(lp1058
I1
atp1059
a(S'/scratch/po21/jz1585/Google-ACT-256/train-new1202/train-400/0-217.png'
p1060
(lp1061
I0
atp1062
a(S'/scratch/po21/jz1585/Google-ACT-256/train-new1202/train-400/1-165.png'
p1063
(lp1064
I1
atp1065
a(S'/scratch/po21/jz1585/Google-ACT-256/train-new1202/train-400/0-371.png'
p1066
(lp1067
I0
atp1068
a(S'/scratch/po21/jz1585/Google-ACT-256/train-new1202/train-400/0-440.png'
p1069
(lp1070
I0
atp1071
a(S'/scratch/po21/jz1585/Google-ACT-256/train-new1202/train-400/0-623.png'
p1072
(lp1073
I0
atp1074
a(S'/scratch/po21/jz1585/Google-ACT-256/train-new1202/train-400/0-1066.png'
p1075
(lp1076
I0
atp1077
a(S'/scratch/po21/jz1585/Google-ACT-256/train-new1202/train-400/1-1114.png'
p1078
(lp1079
I1
atp1080
a(S'/scratch/po21/jz1585/Google-ACT-256/train-new1202/train-400/1-1036.png'
p1081
(lp1082
I1
atp1083
a(S'/scratch/po21/jz1585/Google-ACT-256/train-new1202/train-400/0-1020.png'
p1084
(lp1085
I0
atp1086
a(S'/scratch/po21/jz1585/Google-ACT-256/train-new1202/train-400/0-1498.png'
p1087
(lp1088
I0
atp1089
a(S'/scratch/po21/jz1585/Google-ACT-256/train-new1202/train-400/1-1711.png'
p1090
(lp1091
I1
atp1092
a(S'/scratch/po21/jz1585/Google-ACT-256/train-new1202/train-400/0-452.png'
p1093
(lp1094
I0
atp1095
a(S'/scratch/po21/jz1585/Google-ACT-256/train-new1202/train-400/1-1256.png'
p1096
(lp1097
I1
atp1098
a(S'/scratch/po21/jz1585/Google-ACT-256/train-new1202/train-400/0-221.png'
p1099
(lp1100
I0
atp1101
a(S'/scratch/po21/jz1585/Google-ACT-256/train-new1202/train-400/0-1278.png'
p1102
(lp1103
I0
atp1104
a(S'/scratch/po21/jz1585/Google-ACT-256/train-new1202/train-400/1-45.png'
p1105
(lp1106
I1
atp1107
a(S'/scratch/po21/jz1585/Google-ACT-256/train-new1202/train-400/1-1284.png'
p1108
(lp1109
I1
atp1110
a(S'/scratch/po21/jz1585/Google-ACT-256/train-new1202/train-400/1-1053.png'
p1111
(lp1112
I1
atp1113
a(S'/scratch/po21/jz1585/Google-ACT-256/train-new1202/train-400/0-1236.png'
p1114
(lp1115
I0
atp1116
a(S'/scratch/po21/jz1585/Google-ACT-256/train-new1202/train-400/0-1347.png'
p1117
(lp1118
I0
atp1119
a(S'/scratch/po21/jz1585/Google-ACT-256/train-new1202/train-400/1-1573.png'
p1120
(lp1121
I1
atp1122
a(S'/scratch/po21/jz1585/Google-ACT-256/train-new1202/train-400/1-1272.png'
p1123
(lp1124
I1
atp1125
a(S'/scratch/po21/jz1585/Google-ACT-256/train-new1202/train-400/0-33.png'
p1126
(lp1127
I0
atp1128
a(S'/scratch/po21/jz1585/Google-ACT-256/train-new1202/train-400/1-1719.png'
p1129
(lp1130
I1
atp1131
a(S'/scratch/po21/jz1585/Google-ACT-256/train-new1202/train-400/1-650.png'
p1132
(lp1133
I1
atp1134
a(S'/scratch/po21/jz1585/Google-ACT-256/train-new1202/train-400/1-461.png'
p1135
(lp1136
I1
atp1137
a(S'/scratch/po21/jz1585/Google-ACT-256/train-new1202/train-400/0-294.png'
p1138
(lp1139
I0
atp1140
a(S'/scratch/po21/jz1585/Google-ACT-256/train-new1202/train-400/0-1208.png'
p1141
(lp1142
I0
atp1143
a(S'/scratch/po21/jz1585/Google-ACT-256/train-new1202/train-400/1-833.png'
p1144
(lp1145
I1
atp1146
a(S'/scratch/po21/jz1585/Google-ACT-256/train-new1202/train-400/0-567.png'
p1147
(lp1148
I0
atp1149
a(S'/scratch/po21/jz1585/Google-ACT-256/train-new1202/train-400/1-834.png'
p1150
(lp1151
I1
atp1152
a(S'/scratch/po21/jz1585/Google-ACT-256/train-new1202/train-400/1-505.png'
p1153
(lp1154
I1
atp1155
a(S'/scratch/po21/jz1585/Google-ACT-256/train-new1202/train-400/1-12.png'
p1156
(lp1157
I1
atp1158
a(S'/scratch/po21/jz1585/Google-ACT-256/train-new1202/train-400/1-1544.png'
p1159
(lp1160
I1
atp1161
a(S'/scratch/po21/jz1585/Google-ACT-256/train-new1202/train-400/0-577.png'
p1162
(lp1163
I0
atp1164
a(S'/scratch/po21/jz1585/Google-ACT-256/train-new1202/train-400/0-1108.png'
p1165
(lp1166
I0
atp1167
a(S'/scratch/po21/jz1585/Google-ACT-256/train-new1202/train-400/0-1425.png'
p1168
(lp1169
I0
atp1170
a(S'/scratch/po21/jz1585/Google-ACT-256/train-new1202/train-400/0-1293.png'
p1171
(lp1172
I0
atp1173
a(S'/scratch/po21/jz1585/Google-ACT-256/train-new1202/train-400/1-1748.png'
p1174
(lp1175
I1
atp1176
a(S'/scratch/po21/jz1585/Google-ACT-256/train-new1202/train-400/0-209.png'
p1177
(lp1178
I0
atp1179
a(S'/scratch/po21/jz1585/Google-ACT-256/train-new1202/train-400/1-1257.png'
p1180
(lp1181
I1
atp1182
a(S'/scratch/po21/jz1585/Google-ACT-256/train-new1202/train-400/0-338.png'
p1183
(lp1184
I0
atp1185
a(S'/scratch/po21/jz1585/Google-ACT-256/train-new1202/train-400/0-1159.png'
p1186
(lp1187
I0
atp1188
a(S'/scratch/po21/jz1585/Google-ACT-256/train-new1202/train-400/0-431.png'
p1189
(lp1190
I0
atp1191
a(S'/scratch/po21/jz1585/Google-ACT-256/train-new1202/train-400/0-1206.png'
p1192
(lp1193
I0
atp1194
a(S'/scratch/po21/jz1585/Google-ACT-256/train-new1202/train-400/1-281.png'
p1195
(lp1196
I1
atp1197
a(S'/scratch/po21/jz1585/Google-ACT-256/train-new1202/train-400/1-1250.png'
p1198
(lp1199
I1
atp1200
a(S'/scratch/po21/jz1585/Google-ACT-256/train-new1202/train-400/1-455.png'
p1201
(lp1202
I1
atp1203
a(S'/scratch/po21/jz1585/Google-ACT-256/train-new1202/train-400/0-1332.png'
p1204
(lp1205
I0
atp1206
a(S'/scratch/po21/jz1585/Google-ACT-256/train-new1202/train-400/1-381.png'
p1207
(lp1208
I1
atp1209
a(S'/scratch/po21/jz1585/Google-ACT-256/train-new1202/train-400/1-1251.png'
p1210
(lp1211
I1
atp1212
a(S'/scratch/po21/jz1585/Google-ACT-256/train-new1202/train-400/1-403.png'
p1213
(lp1214
I1
atp1215
a(S'/scratch/po21/jz1585/Google-ACT-256/train-new1202/train-400/1-368.png'
p1216
(lp1217
I1
atp1218
a(S'/scratch/po21/jz1585/Google-ACT-256/train-new1202/train-400/0-658.png'
p1219
(lp1220
I0
atp1221
a(S'/scratch/po21/jz1585/Google-ACT-256/train-new1202/train-400/0-1.png'
p1222
(lp1223
I0
atp1224
a(S'/scratch/po21/jz1585/Google-ACT-256/train-new1202/train-400/0-549.png'
p1225
(lp1226
I0
atp1227
a(S'/scratch/po21/jz1585/Google-ACT-256/train-new1202/train-400/0-1446.png'
p1228
(lp1229
I0
atp1230
a(S'/scratch/po21/jz1585/Google-ACT-256/train-new1202/train-400/1-65.png'
p1231
(lp1232
I1
atp1233
a(S'/scratch/po21/jz1585/Google-ACT-256/train-new1202/train-400/1-582.png'
p1234
(lp1235
I1
atp1236
a(S'/scratch/po21/jz1585/Google-ACT-256/train-new1202/train-400/1-325.png'
p1237
(lp1238
I1
atp1239
a(S'/scratch/po21/jz1585/Google-ACT-256/train-new1202/train-400/0-908.png'
p1240
(lp1241
I0
atp1242
a(S'/scratch/po21/jz1585/Google-ACT-256/train-new1202/train-400/0-171.png'
p1243
(lp1244
I0
atp1245
a(S'/scratch/po21/jz1585/Google-ACT-256/train-new1202/train-400/1-554.png'
p1246
(lp1247
I1
atp1248
a(S'/scratch/po21/jz1585/Google-ACT-256/train-new1202/train-400/0-1259.png'
p1249
(lp1250
I0
atp1251
a(S'/scratch/po21/jz1585/Google-ACT-256/train-new1202/train-400/1-143.png'
p1252
(lp1253
I1
atp1254
a(S'/scratch/po21/jz1585/Google-ACT-256/train-new1202/train-400/1-1488.png'
p1255
(lp1256
I1
atp1257
a(S'/scratch/po21/jz1585/Google-ACT-256/train-new1202/train-400/1-1305.png'
p1258
(lp1259
I1
atp1260
a(S'/scratch/po21/jz1585/Google-ACT-256/train-new1202/train-400/0-1150.png'
p1261
(lp1262
I0
atp1263
a(S'/scratch/po21/jz1585/Google-ACT-256/train-new1202/train-400/0-61.png'
p1264
(lp1265
I0
atp1266
a(S'/scratch/po21/jz1585/Google-ACT-256/train-new1202/train-400/0-186.png'
p1267
(lp1268
I0
atp1269
a(S'/scratch/po21/jz1585/Google-ACT-256/train-new1202/train-400/0-961.png'
p1270
(lp1271
I0
atp1272
a(S'/scratch/po21/jz1585/Google-ACT-256/train-new1202/train-400/0-882.png'
p1273
(lp1274
I0
atp1275
a(S'/scratch/po21/jz1585/Google-ACT-256/train-new1202/train-400/1-1187.png'
p1276
(lp1277
I1
atp1278
a(S'/scratch/po21/jz1585/Google-ACT-256/train-new1202/train-400/1-1814.png'
p1279
(lp1280
I1
atp1281
a(S'/scratch/po21/jz1585/Google-ACT-256/train-new1202/train-400/1-1201.png'
p1282
(lp1283
I1
atp1284
a(S'/scratch/po21/jz1585/Google-ACT-256/train-new1202/train-400/0-752.png'
p1285
(lp1286
I0
atp1287
a(S'/scratch/po21/jz1585/Google-ACT-256/train-new1202/train-400/0-580.png'
p1288
(lp1289
I0
atp1290
a(S'/scratch/po21/jz1585/Google-ACT-256/train-new1202/train-400/1-337.png'
p1291
(lp1292
I1
atp1293
a(S'/scratch/po21/jz1585/Google-ACT-256/train-new1202/train-400/1-900.png'
p1294
(lp1295
I1
atp1296
a(S'/scratch/po21/jz1585/Google-ACT-256/train-new1202/train-400/1-1754.png'
p1297
(lp1298
I1
atp1299
a(S'/scratch/po21/jz1585/Google-ACT-256/train-new1202/train-400/0-780.png'
p1300
(lp1301
I0
atp1302
a(S'/scratch/po21/jz1585/Google-ACT-256/train-new1202/train-400/0-531.png'
p1303
(lp1304
I0
atp1305
a(S'/scratch/po21/jz1585/Google-ACT-256/train-new1202/train-400/0-790.png'
p1306
(lp1307
I0
atp1308
a(S'/scratch/po21/jz1585/Google-ACT-256/train-new1202/train-400/1-1467.png'
p1309
(lp1310
I1
atp1311
a(S'/scratch/po21/jz1585/Google-ACT-256/train-new1202/train-400/0-363.png'
p1312
(lp1313
I0
atp1314
a(S'/scratch/po21/jz1585/Google-ACT-256/train-new1202/train-400/1-1212.png'
p1315
(lp1316
I1
atp1317
a(S'/scratch/po21/jz1585/Google-ACT-256/train-new1202/train-400/0-1277.png'
p1318
(lp1319
I0
atp1320
a(S'/scratch/po21/jz1585/Google-ACT-256/train-new1202/train-400/1-1743.png'
p1321
(lp1322
I1
atp1323
a(S'/scratch/po21/jz1585/Google-ACT-256/train-new1202/train-400/1-608.png'
p1324
(lp1325
I1
atp1326
a(S'/scratch/po21/jz1585/Google-ACT-256/train-new1202/train-400/1-1726.png'
p1327
(lp1328
I1
atp1329
a(S'/scratch/po21/jz1585/Google-ACT-256/train-new1202/train-400/0-473.png'
p1330
(lp1331
I0
atp1332
a(S'/scratch/po21/jz1585/Google-ACT-256/train-new1202/train-400/1-1061.png'
p1333
(lp1334
I1
atp1335
a(S'/scratch/po21/jz1585/Google-ACT-256/train-new1202/train-400/1-236.png'
p1336
(lp1337
I1
atp1338
a(S'/scratch/po21/jz1585/Google-ACT-256/train-new1202/train-400/1-1384.png'
p1339
(lp1340
I1
atp1341
a(S'/scratch/po21/jz1585/Google-ACT-256/train-new1202/train-400/0-1235.png'
p1342
(lp1343
I0
atp1344
a(S'/scratch/po21/jz1585/Google-ACT-256/train-new1202/train-400/0-1449.png'
p1345
(lp1346
I0
atp1347
a(S'/scratch/po21/jz1585/Google-ACT-256/train-new1202/train-400/0-1338.png'
p1348
(lp1349
I0
atp1350
a(S'/scratch/po21/jz1585/Google-ACT-256/train-new1202/train-400/0-779.png'
p1351
(lp1352
I0
atp1353
a(S'/scratch/po21/jz1585/Google-ACT-256/train-new1202/train-400/0-669.png'
p1354
(lp1355
I0
atp1356
a(S'/scratch/po21/jz1585/Google-ACT-256/train-new1202/train-400/0-1388.png'
p1357
(lp1358
I0
atp1359
a(S'/scratch/po21/jz1585/Google-ACT-256/train-new1202/train-400/1-323.png'
p1360
(lp1361
I1
atp1362
a(S'/scratch/po21/jz1585/Google-ACT-256/train-new1202/train-400/0-800.png'
p1363
(lp1364
I0
atp1365
a(S'/scratch/po21/jz1585/Google-ACT-256/train-new1202/train-400/0-798.png'
p1366
(lp1367
I0
atp1368
a(S'/scratch/po21/jz1585/Google-ACT-256/train-new1202/train-400/0-60.png'
p1369
(lp1370
I0
atp1371
a(S'/scratch/po21/jz1585/Google-ACT-256/train-new1202/train-400/1-1214.png'
p1372
(lp1373
I1
atp1374
a(S'/scratch/po21/jz1585/Google-ACT-256/train-new1202/train-400/1-266.png'
p1375
(lp1376
I1
atp1377
a(S'/scratch/po21/jz1585/Google-ACT-256/train-new1202/train-400/0-322.png'
p1378
(lp1379
I0
atp1380
a(S'/scratch/po21/jz1585/Google-ACT-256/train-new1202/train-400/0-243.png'
p1381
(lp1382
I0
atp1383
a(S'/scratch/po21/jz1585/Google-ACT-256/train-new1202/train-400/0-205.png'
p1384
(lp1385
I0
atp1386
a(S'/scratch/po21/jz1585/Google-ACT-256/train-new1202/train-400/1-1005.png'
p1387
(lp1388
I1
atp1389
a(S'/scratch/po21/jz1585/Google-ACT-256/train-new1202/train-400/1-1287.png'
p1390
(lp1391
I1
atp1392
a(S'/scratch/po21/jz1585/Google-ACT-256/train-new1202/train-400/1-1779.png'
p1393
(lp1394
I1
atp1395
a(S'/scratch/po21/jz1585/Google-ACT-256/train-new1202/train-400/0-479.png'
p1396
(lp1397
I0
atp1398
a(S'/scratch/po21/jz1585/Google-ACT-256/train-new1202/train-400/0-164.png'
p1399
(lp1400
I0
atp1401
a(S'/scratch/po21/jz1585/Google-ACT-256/train-new1202/train-400/1-216.png'
p1402
(lp1403
I1
atp1404
a(S'/scratch/po21/jz1585/Google-ACT-256/train-new1202/train-400/1-18.png'
p1405
(lp1406
I1
atp1407
a(S'/scratch/po21/jz1585/Google-ACT-256/train-new1202/train-400/1-441.png'
p1408
(lp1409
I1
atp1410
a(S'/scratch/po21/jz1585/Google-ACT-256/train-new1202/train-400/0-591.png'
p1411
(lp1412
I0
atp1413
a(S'/scratch/po21/jz1585/Google-ACT-256/train-new1202/train-400/1-679.png'
p1414
(lp1415
I1
atp1416
a(S'/scratch/po21/jz1585/Google-ACT-256/train-new1202/train-400/0-161.png'
p1417
(lp1418
I0
atp1419
a(S'/scratch/po21/jz1585/Google-ACT-256/train-new1202/train-400/1-1047.png'
p1420
(lp1421
I1
atp1422
a(S'/scratch/po21/jz1585/Google-ACT-256/train-new1202/train-400/0-1171.png'
p1423
(lp1424
I0
atp1425
a(S'/scratch/po21/jz1585/Google-ACT-256/train-new1202/train-400/1-1180.png'
p1426
(lp1427
I1
atp1428
a(S'/scratch/po21/jz1585/Google-ACT-256/train-new1202/train-400/1-1525.png'
p1429
(lp1430
I1
atp1431
a(S'/scratch/po21/jz1585/Google-ACT-256/train-new1202/train-400/1-147.png'
p1432
(lp1433
I1
atp1434
a(S'/scratch/po21/jz1585/Google-ACT-256/train-new1202/train-400/1-1046.png'
p1435
(lp1436
I1
atp1437
a(S'/scratch/po21/jz1585/Google-ACT-256/train-new1202/train-400/1-217.png'
p1438
(lp1439
I1
atp1440
a(S'/scratch/po21/jz1585/Google-ACT-256/train-new1202/train-400/0-977.png'
p1441
(lp1442
I0
atp1443
a(S'/scratch/po21/jz1585/Google-ACT-256/train-new1202/train-400/0-379.png'
p1444
(lp1445
I0
atp1446
a(S'/scratch/po21/jz1585/Google-ACT-256/train-new1202/train-400/1-1300.png'
p1447
(lp1448
I1
atp1449
a(S'/scratch/po21/jz1585/Google-ACT-256/train-new1202/train-400/1-97.png'
p1450
(lp1451
I1
atp1452
a(S'/scratch/po21/jz1585/Google-ACT-256/train-new1202/train-400/1-1590.png'
p1453
(lp1454
I1
atp1455
a(S'/scratch/po21/jz1585/Google-ACT-256/train-new1202/train-400/1-1407.png'
p1456
(lp1457
I1
atp1458
a(S'/scratch/po21/jz1585/Google-ACT-256/train-new1202/train-400/1-1435.png'
p1459
(lp1460
I1
atp1461
a(S'/scratch/po21/jz1585/Google-ACT-256/train-new1202/train-400/1-695.png'
p1462
(lp1463
I1
atp1464
a(S'/scratch/po21/jz1585/Google-ACT-256/train-new1202/train-400/0-224.png'
p1465
(lp1466
I0
atp1467
a(S'/scratch/po21/jz1585/Google-ACT-256/train-new1202/train-400/1-566.png'
p1468
(lp1469
I1
atp1470
a(S'/scratch/po21/jz1585/Google-ACT-256/train-new1202/train-400/1-1845.png'
p1471
(lp1472
I1
atp1473
a(S'/scratch/po21/jz1585/Google-ACT-256/train-new1202/train-400/0-1148.png'
p1474
(lp1475
I0
atp1476
a(S'/scratch/po21/jz1585/Google-ACT-256/train-new1202/train-400/1-1761.png'
p1477
(lp1478
I1
atp1479
a(S'/scratch/po21/jz1585/Google-ACT-256/train-new1202/train-400/0-476.png'
p1480
(lp1481
I0
atp1482
a(S'/scratch/po21/jz1585/Google-ACT-256/train-new1202/train-400/1-1538.png'
p1483
(lp1484
I1
atp1485
a(S'/scratch/po21/jz1585/Google-ACT-256/train-new1202/train-400/0-5.png'
p1486
(lp1487
I0
atp1488
a(S'/scratch/po21/jz1585/Google-ACT-256/train-new1202/train-400/0-400.png'
p1489
(lp1490
I0
atp1491
a(S'/scratch/po21/jz1585/Google-ACT-256/train-new1202/train-400/0-38.png'
p1492
(lp1493
I0
atp1494
a(S'/scratch/po21/jz1585/Google-ACT-256/train-new1202/train-400/0-32.png'
p1495
(lp1496
I0
atp1497
a(S'/scratch/po21/jz1585/Google-ACT-256/train-new1202/train-400/1-280.png'
p1498
(lp1499
I1
atp1500
a(S'/scratch/po21/jz1585/Google-ACT-256/train-new1202/train-400/1-581.png'
p1501
(lp1502
I1
atp1503
a(S'/scratch/po21/jz1585/Google-ACT-256/train-new1202/train-400/1-1705.png'
p1504
(lp1505
I1
atp1506
a(S'/scratch/po21/jz1585/Google-ACT-256/train-new1202/train-400/1-1623.png'
p1507
(lp1508
I1
atp1509
a(S'/scratch/po21/jz1585/Google-ACT-256/train-new1202/train-400/1-1178.png'
p1510
(lp1511
I1
atp1512
a(S'/scratch/po21/jz1585/Google-ACT-256/train-new1202/train-400/0-376.png'
p1513
(lp1514
I0
atp1515
a(S'/scratch/po21/jz1585/Google-ACT-256/train-new1202/train-400/0-750.png'
p1516
(lp1517
I0
atp1518
a(S'/scratch/po21/jz1585/Google-ACT-256/train-new1202/train-400/1-230.png'
p1519
(lp1520
I1
atp1521
a(S'/scratch/po21/jz1585/Google-ACT-256/train-new1202/train-400/1-296.png'
p1522
(lp1523
I1
atp1524
a(S'/scratch/po21/jz1585/Google-ACT-256/train-new1202/train-400/0-456.png'
p1525
(lp1526
I0
atp1527
a(S'/scratch/po21/jz1585/Google-ACT-256/train-new1202/train-400/1-1076.png'
p1528
(lp1529
I1
atp1530
a(S'/scratch/po21/jz1585/Google-ACT-256/train-new1202/train-400/1-1767.png'
p1531
(lp1532
I1
atp1533
a(S'/scratch/po21/jz1585/Google-ACT-256/train-new1202/train-400/1-1639.png'
p1534
(lp1535
I1
atp1536
a(S'/scratch/po21/jz1585/Google-ACT-256/train-new1202/train-400/1-1265.png'
p1537
(lp1538
I1
atp1539
a(S'/scratch/po21/jz1585/Google-ACT-256/train-new1202/train-400/1-839.png'
p1540
(lp1541
I1
atp1542
a(S'/scratch/po21/jz1585/Google-ACT-256/train-new1202/train-400/0-895.png'
p1543
(lp1544
I0
atp1545
a(S'/scratch/po21/jz1585/Google-ACT-256/train-new1202/train-400/0-602.png'
p1546
(lp1547
I0
atp1548
a(S'/scratch/po21/jz1585/Google-ACT-256/train-new1202/train-400/0-1509.png'
p1549
(lp1550
I0
atp1551
a(S'/scratch/po21/jz1585/Google-ACT-256/train-new1202/train-400/1-396.png'
p1552
(lp1553
I1
atp1554
a(S'/scratch/po21/jz1585/Google-ACT-256/train-new1202/train-400/0-449.png'
p1555
(lp1556
I0
atp1557
a(S'/scratch/po21/jz1585/Google-ACT-256/train-new1202/train-400/0-79.png'
p1558
(lp1559
I0
atp1560
a(S'/scratch/po21/jz1585/Google-ACT-256/train-new1202/train-400/0-380.png'
p1561
(lp1562
I0
atp1563
a(S'/scratch/po21/jz1585/Google-ACT-256/train-new1202/train-400/1-1380.png'
p1564
(lp1565
I1
atp1566
a(S'/scratch/po21/jz1585/Google-ACT-256/train-new1202/train-400/1-1218.png'
p1567
(lp1568
I1
atp1569
a(S'/scratch/po21/jz1585/Google-ACT-256/train-new1202/train-400/0-1264.png'
p1570
(lp1571
I0
atp1572
a(S'/scratch/po21/jz1585/Google-ACT-256/train-new1202/train-400/0-560.png'
p1573
(lp1574
I0
atp1575
a(S'/scratch/po21/jz1585/Google-ACT-256/train-new1202/train-400/0-792.png'
p1576
(lp1577
I0
atp1578
a(S'/scratch/po21/jz1585/Google-ACT-256/train-new1202/train-400/0-493.png'
p1579
(lp1580
I0
atp1581
a(S'/scratch/po21/jz1585/Google-ACT-256/train-new1202/train-400/1-231.png'
p1582
(lp1583
I1
atp1584
a(S'/scratch/po21/jz1585/Google-ACT-256/train-new1202/train-400/1-863.png'
p1585
(lp1586
I1
atp1587
a(S'/scratch/po21/jz1585/Google-ACT-256/train-new1202/train-400/1-284.png'
p1588
(lp1589
I1
atp1590
a(S'/scratch/po21/jz1585/Google-ACT-256/train-new1202/train-400/1-1658.png'
p1591
(lp1592
I1
atp1593
a(S'/scratch/po21/jz1585/Google-ACT-256/train-new1202/train-400/0-159.png'
p1594
(lp1595
I0
atp1596
a(S'/scratch/po21/jz1585/Google-ACT-256/train-new1202/train-400/0-1025.png'
p1597
(lp1598
I0
atp1599
a(S'/scratch/po21/jz1585/Google-ACT-256/train-new1202/train-400/0-191.png'
p1600
(lp1601
I0
atp1602
a(S'/scratch/po21/jz1585/Google-ACT-256/train-new1202/train-400/1-1859.png'
p1603
(lp1604
I1
atp1605
a(S'/scratch/po21/jz1585/Google-ACT-256/train-new1202/train-400/1-1024.png'
p1606
(lp1607
I1
atp1608
a(S'/scratch/po21/jz1585/Google-ACT-256/train-new1202/train-400/0-1147.png'
p1609
(lp1610
I0
atp1611
a(S'/scratch/po21/jz1585/Google-ACT-256/train-new1202/train-400/1-49.png'
p1612
(lp1613
I1
atp1614
a(S'/scratch/po21/jz1585/Google-ACT-256/train-new1202/train-400/0-1323.png'
p1615
(lp1616
I0
atp1617
a(S'/scratch/po21/jz1585/Google-ACT-256/train-new1202/train-400/1-483.png'
p1618
(lp1619
I1
atp1620
a(S'/scratch/po21/jz1585/Google-ACT-256/train-new1202/train-400/0-169.png'
p1621
(lp1622
I0
atp1623
a(S'/scratch/po21/jz1585/Google-ACT-256/train-new1202/train-400/1-235.png'
p1624
(lp1625
I1
atp1626
a(S'/scratch/po21/jz1585/Google-ACT-256/train-new1202/train-400/1-609.png'
p1627
(lp1628
I1
atp1629
a(S'/scratch/po21/jz1585/Google-ACT-256/train-new1202/train-400/0-1024.png'
p1630
(lp1631
I0
atp1632
a(S'/scratch/po21/jz1585/Google-ACT-256/train-new1202/train-400/0-389.png'
p1633
(lp1634
I0
atp1635
a(S'/scratch/po21/jz1585/Google-ACT-256/train-new1202/train-400/0-83.png'
p1636
(lp1637
I0
atp1638
a(S'/scratch/po21/jz1585/Google-ACT-256/train-new1202/train-400/1-838.png'
p1639
(lp1640
I1
atp1641
a(S'/scratch/po21/jz1585/Google-ACT-256/train-new1202/train-400/0-1141.png'
p1642
(lp1643
I0
atp1644
a(S'/scratch/po21/jz1585/Google-ACT-256/train-new1202/train-400/1-1279.png'
p1645
(lp1646
I1
atp1647
a(S'/scratch/po21/jz1585/Google-ACT-256/train-new1202/train-400/1-1642.png'
p1648
(lp1649
I1
atp1650
a(S'/scratch/po21/jz1585/Google-ACT-256/train-new1202/train-400/0-641.png'
p1651
(lp1652
I0
atp1653
a(S'/scratch/po21/jz1585/Google-ACT-256/train-new1202/train-400/1-109.png'
p1654
(lp1655
I1
atp1656
a(S'/scratch/po21/jz1585/Google-ACT-256/train-new1202/train-400/1-510.png'
p1657
(lp1658
I1
atp1659
a(S'/scratch/po21/jz1585/Google-ACT-256/train-new1202/train-400/0-1514.png'
p1660
(lp1661
I0
atp1662
a(S'/scratch/po21/jz1585/Google-ACT-256/train-new1202/train-400/0-843.png'
p1663
(lp1664
I0
atp1665
a(S'/scratch/po21/jz1585/Google-ACT-256/train-new1202/train-400/0-1207.png'
p1666
(lp1667
I0
atp1668
a(S'/scratch/po21/jz1585/Google-ACT-256/train-new1202/train-400/0-122.png'
p1669
(lp1670
I0
atp1671
a(S'/scratch/po21/jz1585/Google-ACT-256/train-new1202/train-400/1-660.png'
p1672
(lp1673
I1
atp1674
a(S'/scratch/po21/jz1585/Google-ACT-256/train-new1202/train-400/0-196.png'
p1675
(lp1676
I0
atp1677
a(S'/scratch/po21/jz1585/Google-ACT-256/train-new1202/train-400/1-348.png'
p1678
(lp1679
I1
atp1680
a(S'/scratch/po21/jz1585/Google-ACT-256/train-new1202/train-400/0-124.png'
p1681
(lp1682
I0
atp1683
a(S'/scratch/po21/jz1585/Google-ACT-256/train-new1202/train-400/1-1447.png'
p1684
(lp1685
I1
atp1686
a(S'/scratch/po21/jz1585/Google-ACT-256/train-new1202/train-400/1-926.png'
p1687
(lp1688
I1
atp1689
a(S'/scratch/po21/jz1585/Google-ACT-256/train-new1202/train-400/1-488.png'
p1690
(lp1691
I1
atp1692
a(S'/scratch/po21/jz1585/Google-ACT-256/train-new1202/train-400/0-880.png'
p1693
(lp1694
I0
atp1695
a(S'/scratch/po21/jz1585/Google-ACT-256/train-new1202/train-400/1-948.png'
p1696
(lp1697
I1
atp1698
a(S'/scratch/po21/jz1585/Google-ACT-256/train-new1202/train-400/1-858.png'
p1699
(lp1700
I1
atp1701
a(S'/scratch/po21/jz1585/Google-ACT-256/train-new1202/train-400/0-1357.png'
p1702
(lp1703
I0
atp1704
a(S'/scratch/po21/jz1585/Google-ACT-256/train-new1202/train-400/0-629.png'
p1705
(lp1706
I0
atp1707
a(S'/scratch/po21/jz1585/Google-ACT-256/train-new1202/train-400/1-203.png'
p1708
(lp1709
I1
atp1710
a(S'/scratch/po21/jz1585/Google-ACT-256/train-new1202/train-400/1-1378.png'
p1711
(lp1712
I1
atp1713
a(S'/scratch/po21/jz1585/Google-ACT-256/train-new1202/train-400/0-1178.png'
p1714
(lp1715
I0
atp1716
a(S'/scratch/po21/jz1585/Google-ACT-256/train-new1202/train-400/1-1574.png'
p1717
(lp1718
I1
atp1719
a(S'/scratch/po21/jz1585/Google-ACT-256/train-new1202/train-400/0-226.png'
p1720
(lp1721
I0
atp1722
a(S'/scratch/po21/jz1585/Google-ACT-256/train-new1202/train-400/0-731.png'
p1723
(lp1724
I0
atp1725
a(S'/scratch/po21/jz1585/Google-ACT-256/train-new1202/train-400/0-347.png'
p1726
(lp1727
I0
atp1728
a(S'/scratch/po21/jz1585/Google-ACT-256/train-new1202/train-400/1-1581.png'
p1729
(lp1730
I1
atp1731
a(S'/scratch/po21/jz1585/Google-ACT-256/train-new1202/train-400/0-157.png'
p1732
(lp1733
I0
atp1734
a(S'/scratch/po21/jz1585/Google-ACT-256/train-new1202/train-400/1-448.png'
p1735
(lp1736
I1
atp1737
a(S'/scratch/po21/jz1585/Google-ACT-256/train-new1202/train-400/0-1076.png'
p1738
(lp1739
I0
atp1740
a(S'/scratch/po21/jz1585/Google-ACT-256/train-new1202/train-400/0-1048.png'
p1741
(lp1742
I0
atp1743
a(S'/scratch/po21/jz1585/Google-ACT-256/train-new1202/train-400/1-1855.png'
p1744
(lp1745
I1
atp1746
a(S'/scratch/po21/jz1585/Google-ACT-256/train-new1202/train-400/0-354.png'
p1747
(lp1748
I0
atp1749
a(S'/scratch/po21/jz1585/Google-ACT-256/train-new1202/train-400/0-686.png'
p1750
(lp1751
I0
atp1752
a(S'/scratch/po21/jz1585/Google-ACT-256/train-new1202/train-400/1-1674.png'
p1753
(lp1754
I1
atp1755
a(S'/scratch/po21/jz1585/Google-ACT-256/train-new1202/train-400/0-1402.png'
p1756
(lp1757
I0
atp1758
a(S'/scratch/po21/jz1585/Google-ACT-256/train-new1202/train-400/0-1123.png'
p1759
(lp1760
I0
atp1761
a(S'/scratch/po21/jz1585/Google-ACT-256/train-new1202/train-400/1-413.png'
p1762
(lp1763
I1
atp1764
a(S'/scratch/po21/jz1585/Google-ACT-256/train-new1202/train-400/0-787.png'
p1765
(lp1766
I0
atp1767
a(S'/scratch/po21/jz1585/Google-ACT-256/train-new1202/train-400/0-1073.png'
p1768
(lp1769
I0
atp1770
a(S'/scratch/po21/jz1585/Google-ACT-256/train-new1202/train-400/0-1452.png'
p1771
(lp1772
I0
atp1773
a(S'/scratch/po21/jz1585/Google-ACT-256/train-new1202/train-400/0-416.png'
p1774
(lp1775
I0
atp1776
a(S'/scratch/po21/jz1585/Google-ACT-256/train-new1202/train-400/0-28.png'
p1777
(lp1778
I0
atp1779
a(S'/scratch/po21/jz1585/Google-ACT-256/train-new1202/train-400/1-1827.png'
p1780
(lp1781
I1
atp1782
a(S'/scratch/po21/jz1585/Google-ACT-256/train-new1202/train-400/0-160.png'
p1783
(lp1784
I0
atp1785
a(S'/scratch/po21/jz1585/Google-ACT-256/train-new1202/train-400/0-1282.png'
p1786
(lp1787
I0
atp1788
a(S'/scratch/po21/jz1585/Google-ACT-256/train-new1202/train-400/0-1364.png'
p1789
(lp1790
I0
atp1791
a(S'/scratch/po21/jz1585/Google-ACT-256/train-new1202/train-400/0-1031.png'
p1792
(lp1793
I0
atp1794
a(S'/scratch/po21/jz1585/Google-ACT-256/train-new1202/train-400/0-820.png'
p1795
(lp1796
I0
atp1797
a(S'/scratch/po21/jz1585/Google-ACT-256/train-new1202/train-400/1-1258.png'
p1798
(lp1799
I1
atp1800
a(S'/scratch/po21/jz1585/Google-ACT-256/train-new1202/train-400/1-414.png'
p1801
(lp1802
I1
atp1803
a(S'/scratch/po21/jz1585/Google-ACT-256/train-new1202/train-400/1-1307.png'
p1804
(lp1805
I1
atp1806
a(S'/scratch/po21/jz1585/Google-ACT-256/train-new1202/train-400/0-1484.png'
p1807
(lp1808
I0
atp1809
a(S'/scratch/po21/jz1585/Google-ACT-256/train-new1202/train-400/0-729.png'
p1810
(lp1811
I0
atp1812
a(S'/scratch/po21/jz1585/Google-ACT-256/train-new1202/train-400/1-1622.png'
p1813
(lp1814
I1
atp1815
a(S'/scratch/po21/jz1585/Google-ACT-256/train-new1202/train-400/1-587.png'
p1816
(lp1817
I1
atp1818
a(S'/scratch/po21/jz1585/Google-ACT-256/train-new1202/train-400/0-1122.png'
p1819
(lp1820
I0
atp1821
a(S'/scratch/po21/jz1585/Google-ACT-256/train-new1202/train-400/0-250.png'
p1822
(lp1823
I0
atp1824
a(S'/scratch/po21/jz1585/Google-ACT-256/train-new1202/train-400/1-1829.png'
p1825
(lp1826
I1
atp1827
a(S'/scratch/po21/jz1585/Google-ACT-256/train-new1202/train-400/1-481.png'
p1828
(lp1829
I1
atp1830
a(S'/scratch/po21/jz1585/Google-ACT-256/train-new1202/train-400/1-693.png'
p1831
(lp1832
I1
atp1833
a(S'/scratch/po21/jz1585/Google-ACT-256/train-new1202/train-400/1-13.png'
p1834
(lp1835
I1
atp1836
a(S'/scratch/po21/jz1585/Google-ACT-256/train-new1202/train-400/0-776.png'
p1837
(lp1838
I0
atp1839
a(S'/scratch/po21/jz1585/Google-ACT-256/train-new1202/train-400/0-1015.png'
p1840
(lp1841
I0
atp1842
a(S'/scratch/po21/jz1585/Google-ACT-256/train-new1202/train-400/0-741.png'
p1843
(lp1844
I0
atp1845
a(S'/scratch/po21/jz1585/Google-ACT-256/train-new1202/train-400/1-1332.png'
p1846
(lp1847
I1
atp1848
a(S'/scratch/po21/jz1585/Google-ACT-256/train-new1202/train-400/0-299.png'
p1849
(lp1850
I0
atp1851
a(S'/scratch/po21/jz1585/Google-ACT-256/train-new1202/train-400/1-268.png'
p1852
(lp1853
I1
atp1854
a(S'/scratch/po21/jz1585/Google-ACT-256/train-new1202/train-400/0-768.png'
p1855
(lp1856
I0
atp1857
a(S'/scratch/po21/jz1585/Google-ACT-256/train-new1202/train-400/0-1243.png'
p1858
(lp1859
I0
atp1860
a(S'/scratch/po21/jz1585/Google-ACT-256/train-new1202/train-400/0-1098.png'
p1861
(lp1862
I0
atp1863
a(S'/scratch/po21/jz1585/Google-ACT-256/train-new1202/train-400/1-991.png'
p1864
(lp1865
I1
atp1866
a(S'/scratch/po21/jz1585/Google-ACT-256/train-new1202/train-400/0-1199.png'
p1867
(lp1868
I0
atp1869
a(S'/scratch/po21/jz1585/Google-ACT-256/train-new1202/train-400/0-622.png'
p1870
(lp1871
I0
atp1872
a(S'/scratch/po21/jz1585/Google-ACT-256/train-new1202/train-400/1-1328.png'
p1873
(lp1874
I1
atp1875
a(S'/scratch/po21/jz1585/Google-ACT-256/train-new1202/train-400/0-1175.png'
p1876
(lp1877
I0
atp1878
a(S'/scratch/po21/jz1585/Google-ACT-256/train-new1202/train-400/0-860.png'
p1879
(lp1880
I0
atp1881
a(S'/scratch/po21/jz1585/Google-ACT-256/train-new1202/train-400/0-498.png'
p1882
(lp1883
I0
atp1884
a(S'/scratch/po21/jz1585/Google-ACT-256/train-new1202/train-400/1-837.png'
p1885
(lp1886
I1
atp1887
a(S'/scratch/po21/jz1585/Google-ACT-256/train-new1202/train-400/0-230.png'
p1888
(lp1889
I0
atp1890
a(S'/scratch/po21/jz1585/Google-ACT-256/train-new1202/train-400/0-906.png'
p1891
(lp1892
I0
atp1893
a(S'/scratch/po21/jz1585/Google-ACT-256/train-new1202/train-400/1-577.png'
p1894
(lp1895
I1
atp1896
a(S'/scratch/po21/jz1585/Google-ACT-256/train-new1202/train-400/0-550.png'
p1897
(lp1898
I0
atp1899
a(S'/scratch/po21/jz1585/Google-ACT-256/train-new1202/train-400/1-1206.png'
p1900
(lp1901
I1
atp1902
a(S'/scratch/po21/jz1585/Google-ACT-256/train-new1202/train-400/0-888.png'
p1903
(lp1904
I0
atp1905
a(S'/scratch/po21/jz1585/Google-ACT-256/train-new1202/train-400/1-1876.png'
p1906
(lp1907
I1
atp1908
a(S'/scratch/po21/jz1585/Google-ACT-256/train-new1202/train-400/1-1373.png'
p1909
(lp1910
I1
atp1911
a(S'/scratch/po21/jz1585/Google-ACT-256/train-new1202/train-400/1-1524.png'
p1912
(lp1913
I1
atp1914
a(S'/scratch/po21/jz1585/Google-ACT-256/train-new1202/train-400/0-874.png'
p1915
(lp1916
I0
atp1917
a(S'/scratch/po21/jz1585/Google-ACT-256/train-new1202/train-400/1-1059.png'
p1918
(lp1919
I1
atp1920
a(S'/scratch/po21/jz1585/Google-ACT-256/train-new1202/train-400/0-90.png'
p1921
(lp1922
I0
atp1923
a(S'/scratch/po21/jz1585/Google-ACT-256/train-new1202/train-400/1-1165.png'
p1924
(lp1925
I1
atp1926
a(S'/scratch/po21/jz1585/Google-ACT-256/train-new1202/train-400/0-1306.png'
p1927
(lp1928
I0
atp1929
a(S'/scratch/po21/jz1585/Google-ACT-256/train-new1202/train-400/1-324.png'
p1930
(lp1931
I1
atp1932
a(S'/scratch/po21/jz1585/Google-ACT-256/train-new1202/train-400/1-683.png'
p1933
(lp1934
I1
atp1935
a(S'/scratch/po21/jz1585/Google-ACT-256/train-new1202/train-400/0-705.png'
p1936
(lp1937
I0
atp1938
a(S'/scratch/po21/jz1585/Google-ACT-256/train-new1202/train-400/0-541.png'
p1939
(lp1940
I0
atp1941
a(S'/scratch/po21/jz1585/Google-ACT-256/train-new1202/train-400/0-410.png'
p1942
(lp1943
I0
atp1944
a(S'/scratch/po21/jz1585/Google-ACT-256/train-new1202/train-400/0-1443.png'
p1945
(lp1946
I0
atp1947
a(S'/scratch/po21/jz1585/Google-ACT-256/train-new1202/train-400/1-1826.png'
p1948
(lp1949
I1
atp1950
a(S'/scratch/po21/jz1585/Google-ACT-256/train-new1202/train-400/0-1391.png'
p1951
(lp1952
I0
atp1953
a(S'/scratch/po21/jz1585/Google-ACT-256/train-new1202/train-400/1-1828.png'
p1954
(lp1955
I1
atp1956
a(S'/scratch/po21/jz1585/Google-ACT-256/train-new1202/train-400/1-1351.png'
p1957
(lp1958
I1
atp1959
a(S'/scratch/po21/jz1585/Google-ACT-256/train-new1202/train-400/1-400.png'
p1960
(lp1961
I1
atp1962
a(S'/scratch/po21/jz1585/Google-ACT-256/train-new1202/train-400/1-364.png'
p1963
(lp1964
I1
atp1965
a(S'/scratch/po21/jz1585/Google-ACT-256/train-new1202/train-400/0-1140.png'
p1966
(lp1967
I0
atp1968
a(S'/scratch/po21/jz1585/Google-ACT-256/train-new1202/train-400/1-690.png'
p1969
(lp1970
I1
atp1971
a(S'/scratch/po21/jz1585/Google-ACT-256/train-new1202/train-400/0-682.png'
p1972
(lp1973
I0
atp1974
a(S'/scratch/po21/jz1585/Google-ACT-256/train-new1202/train-400/1-471.png'
p1975
(lp1976
I1
atp1977
a(S'/scratch/po21/jz1585/Google-ACT-256/train-new1202/train-400/1-749.png'
p1978
(lp1979
I1
atp1980
a(S'/scratch/po21/jz1585/Google-ACT-256/train-new1202/train-400/1-520.png'
p1981
(lp1982
I1
atp1983
a(S'/scratch/po21/jz1585/Google-ACT-256/train-new1202/train-400/0-650.png'
p1984
(lp1985
I0
atp1986
a(S'/scratch/po21/jz1585/Google-ACT-256/train-new1202/train-400/1-454.png'
p1987
(lp1988
I1
atp1989
a(S'/scratch/po21/jz1585/Google-ACT-256/train-new1202/train-400/1-588.png'
p1990
(lp1991
I1
atp1992
a(S'/scratch/po21/jz1585/Google-ACT-256/train-new1202/train-400/1-310.png'
p1993
(lp1994
I1
atp1995
a(S'/scratch/po21/jz1585/Google-ACT-256/train-new1202/train-400/0-527.png'
p1996
(lp1997
I0
atp1998
a(S'/scratch/po21/jz1585/Google-ACT-256/train-new1202/train-400/0-532.png'
p1999
(lp2000
I0
atp2001
a(S'/scratch/po21/jz1585/Google-ACT-256/train-new1202/train-400/1-1675.png'
p2002
(lp2003
I1
atp2004
a(S'/scratch/po21/jz1585/Google-ACT-256/train-new1202/train-400/0-189.png'
p2005
(lp2006
I0
atp2007
a(S'/scratch/po21/jz1585/Google-ACT-256/train-new1202/train-400/0-546.png'
p2008
(lp2009
I0
atp2010
a(S'/scratch/po21/jz1585/Google-ACT-256/train-new1202/train-400/0-736.png'
p2011
(lp2012
I0
atp2013
a(S'/scratch/po21/jz1585/Google-ACT-256/train-new1202/train-400/1-66.png'
p2014
(lp2015
I1
atp2016
a(S'/scratch/po21/jz1585/Google-ACT-256/train-new1202/train-400/1-526.png'
p2017
(lp2018
I1
atp2019
a(S'/scratch/po21/jz1585/Google-ACT-256/train-new1202/train-400/1-1679.png'
p2020
(lp2021
I1
atp2022
a(S'/scratch/po21/jz1585/Google-ACT-256/train-new1202/train-400/0-971.png'
p2023
(lp2024
I0
atp2025
a(S'/scratch/po21/jz1585/Google-ACT-256/train-new1202/train-400/0-633.png'
p2026
(lp2027
I0
atp2028
a(S'/scratch/po21/jz1585/Google-ACT-256/train-new1202/train-400/1-856.png'
p2029
(lp2030
I1
atp2031
a(S'/scratch/po21/jz1585/Google-ACT-256/train-new1202/train-400/1-11.png'
p2032
(lp2033
I1
atp2034
a(S'/scratch/po21/jz1585/Google-ACT-256/train-new1202/train-400/1-1810.png'
p2035
(lp2036
I1
atp2037
a(S'/scratch/po21/jz1585/Google-ACT-256/train-new1202/train-400/1-742.png'
p2038
(lp2039
I1
atp2040
a(S'/scratch/po21/jz1585/Google-ACT-256/train-new1202/train-400/0-42.png'
p2041
(lp2042
I0
atp2043
a(S'/scratch/po21/jz1585/Google-ACT-256/train-new1202/train-400/0-1086.png'
p2044
(lp2045
I0
atp2046
a(S'/scratch/po21/jz1585/Google-ACT-256/train-new1202/train-400/1-684.png'
p2047
(lp2048
I1
atp2049
a(S'/scratch/po21/jz1585/Google-ACT-256/train-new1202/train-400/1-1516.png'
p2050
(lp2051
I1
atp2052
a(S'/scratch/po21/jz1585/Google-ACT-256/train-new1202/train-400/0-688.png'
p2053
(lp2054
I0
atp2055
a(S'/scratch/po21/jz1585/Google-ACT-256/train-new1202/train-400/0-489.png'
p2056
(lp2057
I0
atp2058
a(S'/scratch/po21/jz1585/Google-ACT-256/train-new1202/train-400/1-421.png'
p2059
(lp2060
I1
atp2061
a(S'/scratch/po21/jz1585/Google-ACT-256/train-new1202/train-400/1-1119.png'
p2062
(lp2063
I1
atp2064
a(S'/scratch/po21/jz1585/Google-ACT-256/train-new1202/train-400/1-1333.png'
p2065
(lp2066
I1
atp2067
a(S'/scratch/po21/jz1585/Google-ACT-256/train-new1202/train-400/1-805.png'
p2068
(lp2069
I1
atp2070
a(S'/scratch/po21/jz1585/Google-ACT-256/train-new1202/train-400/0-564.png'
p2071
(lp2072
I0
atp2073
a(S'/scratch/po21/jz1585/Google-ACT-256/train-new1202/train-400/0-802.png'
p2074
(lp2075
I0
atp2076
a(S'/scratch/po21/jz1585/Google-ACT-256/train-new1202/train-400/0-538.png'
p2077
(lp2078
I0
atp2079
a(S'/scratch/po21/jz1585/Google-ACT-256/train-new1202/train-400/1-93.png'
p2080
(lp2081
I1
atp2082
a(S'/scratch/po21/jz1585/Google-ACT-256/train-new1202/train-400/0-1068.png'
p2083
(lp2084
I0
atp2085
a(S'/scratch/po21/jz1585/Google-ACT-256/train-new1202/train-400/1-923.png'
p2086
(lp2087
I1
atp2088
a(S'/scratch/po21/jz1585/Google-ACT-256/train-new1202/train-400/1-1244.png'
p2089
(lp2090
I1
atp2091
a(S'/scratch/po21/jz1585/Google-ACT-256/train-new1202/train-400/0-342.png'
p2092
(lp2093
I0
atp2094
a(S'/scratch/po21/jz1585/Google-ACT-256/train-new1202/train-400/1-1629.png'
p2095
(lp2096
I1
atp2097
a(S'/scratch/po21/jz1585/Google-ACT-256/train-new1202/train-400/1-1443.png'
p2098
(lp2099
I1
atp2100
a(S'/scratch/po21/jz1585/Google-ACT-256/train-new1202/train-400/0-1040.png'
p2101
(lp2102
I0
atp2103
a(S'/scratch/po21/jz1585/Google-ACT-256/train-new1202/train-400/0-665.png'
p2104
(lp2105
I0
atp2106
a(S'/scratch/po21/jz1585/Google-ACT-256/train-new1202/train-400/0-118.png'
p2107
(lp2108
I0
atp2109
a(S'/scratch/po21/jz1585/Google-ACT-256/train-new1202/train-400/1-1273.png'
p2110
(lp2111
I1
atp2112
a(S'/scratch/po21/jz1585/Google-ACT-256/train-new1202/train-400/0-1280.png'
p2113
(lp2114
I0
atp2115
a(S'/scratch/po21/jz1585/Google-ACT-256/train-new1202/train-400/1-182.png'
p2116
(lp2117
I1
atp2118
a(S'/scratch/po21/jz1585/Google-ACT-256/train-new1202/train-400/1-73.png'
p2119
(lp2120
I1
atp2121
a(S'/scratch/po21/jz1585/Google-ACT-256/train-new1202/train-400/1-1070.png'
p2122
(lp2123
I1
atp2124
a(S'/scratch/po21/jz1585/Google-ACT-256/train-new1202/train-400/1-540.png'
p2125
(lp2126
I1
atp2127
a(S'/scratch/po21/jz1585/Google-ACT-256/train-new1202/train-400/0-510.png'
p2128
(lp2129
I0
atp2130
a(S'/scratch/po21/jz1585/Google-ACT-256/train-new1202/train-400/1-1088.png'
p2131
(lp2132
I1
atp2133
a(S'/scratch/po21/jz1585/Google-ACT-256/train-new1202/train-400/1-359.png'
p2134
(lp2135
I1
atp2136
a(S'/scratch/po21/jz1585/Google-ACT-256/train-new1202/train-400/1-2.png'
p2137
(lp2138
I1
atp2139
a(S'/scratch/po21/jz1585/Google-ACT-256/train-new1202/train-400/0-153.png'
p2140
(lp2141
I0
atp2142
a(S'/scratch/po21/jz1585/Google-ACT-256/train-new1202/train-400/1-895.png'
p2143
(lp2144
I1
atp2145
a(S'/scratch/po21/jz1585/Google-ACT-256/train-new1202/train-400/1-971.png'
p2146
(lp2147
I1
atp2148
a(S'/scratch/po21/jz1585/Google-ACT-256/train-new1202/train-400/0-108.png'
p2149
(lp2150
I0
atp2151
a(S'/scratch/po21/jz1585/Google-ACT-256/train-new1202/train-400/1-1653.png'
p2152
(lp2153
I1
atp2154
a(S'/scratch/po21/jz1585/Google-ACT-256/train-new1202/train-400/1-803.png'
p2155
(lp2156
I1
atp2157
a(S'/scratch/po21/jz1585/Google-ACT-256/train-new1202/train-400/1-1793.png'
p2158
(lp2159
I1
atp2160
a(S'/scratch/po21/jz1585/Google-ACT-256/train-new1202/train-400/0-36.png'
p2161
(lp2162
I0
atp2163
a(S'/scratch/po21/jz1585/Google-ACT-256/train-new1202/train-400/0-728.png'
p2164
(lp2165
I0
atp2166
a(S'/scratch/po21/jz1585/Google-ACT-256/train-new1202/train-400/0-937.png'
p2167
(lp2168
I0
atp2169
a(S'/scratch/po21/jz1585/Google-ACT-256/train-new1202/train-400/1-1449.png'
p2170
(lp2171
I1
atp2172
a(S'/scratch/po21/jz1585/Google-ACT-256/train-new1202/train-400/0-551.png'
p2173
(lp2174
I0
atp2175
a(S'/scratch/po21/jz1585/Google-ACT-256/train-new1202/train-400/1-432.png'
p2176
(lp2177
I1
atp2178
a(S'/scratch/po21/jz1585/Google-ACT-256/train-new1202/train-400/0-1162.png'
p2179
(lp2180
I0
atp2181
a(S'/scratch/po21/jz1585/Google-ACT-256/train-new1202/train-400/0-1103.png'
p2182
(lp2183
I0
atp2184
a(S'/scratch/po21/jz1585/Google-ACT-256/train-new1202/train-400/1-1151.png'
p2185
(lp2186
I1
atp2187
a(S'/scratch/po21/jz1585/Google-ACT-256/train-new1202/train-400/1-1772.png'
p2188
(lp2189
I1
atp2190
a(S'/scratch/po21/jz1585/Google-ACT-256/train-new1202/train-400/1-1492.png'
p2191
(lp2192
I1
atp2193
a(S'/scratch/po21/jz1585/Google-ACT-256/train-new1202/train-400/0-1291.png'
p2194
(lp2195
I0
atp2196
a(S'/scratch/po21/jz1585/Google-ACT-256/train-new1202/train-400/1-1317.png'
p2197
(lp2198
I1
atp2199
a(S'/scratch/po21/jz1585/Google-ACT-256/train-new1202/train-400/1-1055.png'
p2200
(lp2201
I1
atp2202
a(S'/scratch/po21/jz1585/Google-ACT-256/train-new1202/train-400/0-1111.png'
p2203
(lp2204
I0
atp2205
a(S'/scratch/po21/jz1585/Google-ACT-256/train-new1202/train-400/1-665.png'
p2206
(lp2207
I1
atp2208
a(S'/scratch/po21/jz1585/Google-ACT-256/train-new1202/train-400/0-368.png'
p2209
(lp2210
I0
atp2211
a(S'/scratch/po21/jz1585/Google-ACT-256/train-new1202/train-400/0-1496.png'
p2212
(lp2213
I0
atp2214
a(S'/scratch/po21/jz1585/Google-ACT-256/train-new1202/train-400/1-1822.png'
p2215
(lp2216
I1
atp2217
a(S'/scratch/po21/jz1585/Google-ACT-256/train-new1202/train-400/0-284.png'
p2218
(lp2219
I0
atp2220
a(S'/scratch/po21/jz1585/Google-ACT-256/train-new1202/train-400/0-3.png'
p2221
(lp2222
I0
atp2223
a(S'/scratch/po21/jz1585/Google-ACT-256/train-new1202/train-400/0-405.png'
p2224
(lp2225
I0
atp2226
a(S'/scratch/po21/jz1585/Google-ACT-256/train-new1202/train-400/1-1179.png'
p2227
(lp2228
I1
atp2229
a(S'/scratch/po21/jz1585/Google-ACT-256/train-new1202/train-400/1-1082.png'
p2230
(lp2231
I1
atp2232
a(S'/scratch/po21/jz1585/Google-ACT-256/train-new1202/train-400/0-887.png'
p2233
(lp2234
I0
atp2235
a(S'/scratch/po21/jz1585/Google-ACT-256/train-new1202/train-400/1-1282.png'
p2236
(lp2237
I1
atp2238
a(S'/scratch/po21/jz1585/Google-ACT-256/train-new1202/train-400/1-339.png'
p2239
(lp2240
I1
atp2241
a(S'/scratch/po21/jz1585/Google-ACT-256/train-new1202/train-400/1-361.png'
p2242
(lp2243
I1
atp2244
a(S'/scratch/po21/jz1585/Google-ACT-256/train-new1202/train-400/0-107.png'
p2245
(lp2246
I0
atp2247
a(S'/scratch/po21/jz1585/Google-ACT-256/train-new1202/train-400/0-40.png'
p2248
(lp2249
I0
atp2250
a(S'/scratch/po21/jz1585/Google-ACT-256/train-new1202/train-400/1-1135.png'
p2251
(lp2252
I1
atp2253
a(S'/scratch/po21/jz1585/Google-ACT-256/train-new1202/train-400/0-789.png'
p2254
(lp2255
I0
atp2256
a(S'/scratch/po21/jz1585/Google-ACT-256/train-new1202/train-400/0-896.png'
p2257
(lp2258
I0
atp2259
a(S'/scratch/po21/jz1585/Google-ACT-256/train-new1202/train-400/1-157.png'
p2260
(lp2261
I1
atp2262
a(S'/scratch/po21/jz1585/Google-ACT-256/train-new1202/train-400/0-336.png'
p2263
(lp2264
I0
atp2265
a(S'/scratch/po21/jz1585/Google-ACT-256/train-new1202/train-400/0-1191.png'
p2266
(lp2267
I0
atp2268
a(S'/scratch/po21/jz1585/Google-ACT-256/train-new1202/train-400/1-206.png'
p2269
(lp2270
I1
atp2271
a(S'/scratch/po21/jz1585/Google-ACT-256/train-new1202/train-400/1-1405.png'
p2272
(lp2273
I1
atp2274
a(S'/scratch/po21/jz1585/Google-ACT-256/train-new1202/train-400/1-1867.png'
p2275
(lp2276
I1
atp2277
a(S'/scratch/po21/jz1585/Google-ACT-256/train-new1202/train-400/1-623.png'
p2278
(lp2279
I1
atp2280
a(S'/scratch/po21/jz1585/Google-ACT-256/train-new1202/train-400/0-554.png'
p2281
(lp2282
I0
atp2283
a(S'/scratch/po21/jz1585/Google-ACT-256/train-new1202/train-400/1-1142.png'
p2284
(lp2285
I1
atp2286
a(S'/scratch/po21/jz1585/Google-ACT-256/train-new1202/train-400/1-1381.png'
p2287
(lp2288
I1
atp2289
a(S'/scratch/po21/jz1585/Google-ACT-256/train-new1202/train-400/1-468.png'
p2290
(lp2291
I1
atp2292
a(S'/scratch/po21/jz1585/Google-ACT-256/train-new1202/train-400/0-1071.png'
p2293
(lp2294
I0
atp2295
a(S'/scratch/po21/jz1585/Google-ACT-256/train-new1202/train-400/1-625.png'
p2296
(lp2297
I1
atp2298
a(S'/scratch/po21/jz1585/Google-ACT-256/train-new1202/train-400/0-1200.png'
p2299
(lp2300
I0
atp2301
a(S'/scratch/po21/jz1585/Google-ACT-256/train-new1202/train-400/0-258.png'
p2302
(lp2303
I0
atp2304
a(S'/scratch/po21/jz1585/Google-ACT-256/train-new1202/train-400/1-850.png'
p2305
(lp2306
I1
atp2307
a(S'/scratch/po21/jz1585/Google-ACT-256/train-new1202/train-400/0-655.png'
p2308
(lp2309
I0
atp2310
a(S'/scratch/po21/jz1585/Google-ACT-256/train-new1202/train-400/1-1399.png'
p2311
(lp2312
I1
atp2313
a(S'/scratch/po21/jz1585/Google-ACT-256/train-new1202/train-400/0-328.png'
p2314
(lp2315
I0
atp2316
a(S'/scratch/po21/jz1585/Google-ACT-256/train-new1202/train-400/0-1083.png'
p2317
(lp2318
I0
atp2319
a(S'/scratch/po21/jz1585/Google-ACT-256/train-new1202/train-400/0-117.png'
p2320
(lp2321
I0
atp2322
a(S'/scratch/po21/jz1585/Google-ACT-256/train-new1202/train-400/0-694.png'
p2323
(lp2324
I0
atp2325
a(S'/scratch/po21/jz1585/Google-ACT-256/train-new1202/train-400/1-847.png'
p2326
(lp2327
I1
atp2328
a(S'/scratch/po21/jz1585/Google-ACT-256/train-new1202/train-400/0-1295.png'
p2329
(lp2330
I0
atp2331
a(S'/scratch/po21/jz1585/Google-ACT-256/train-new1202/train-400/1-1386.png'
p2332
(lp2333
I1
atp2334
a(S'/scratch/po21/jz1585/Google-ACT-256/train-new1202/train-400/0-611.png'
p2335
(lp2336
I0
atp2337
a(S'/scratch/po21/jz1585/Google-ACT-256/train-new1202/train-400/1-1018.png'
p2338
(lp2339
I1
atp2340
a(S'/scratch/po21/jz1585/Google-ACT-256/train-new1202/train-400/1-925.png'
p2341
(lp2342
I1
atp2343
a(S'/scratch/po21/jz1585/Google-ACT-256/train-new1202/train-400/1-1126.png'
p2344
(lp2345
I1
atp2346
a(S'/scratch/po21/jz1585/Google-ACT-256/train-new1202/train-400/1-1377.png'
p2347
(lp2348
I1
atp2349
a(S'/scratch/po21/jz1585/Google-ACT-256/train-new1202/train-400/0-308.png'
p2350
(lp2351
I0
atp2352
a(S'/scratch/po21/jz1585/Google-ACT-256/train-new1202/train-400/1-397.png'
p2353
(lp2354
I1
atp2355
a(S'/scratch/po21/jz1585/Google-ACT-256/train-new1202/train-400/1-1635.png'
p2356
(lp2357
I1
atp2358
a(S'/scratch/po21/jz1585/Google-ACT-256/train-new1202/train-400/0-1265.png'
p2359
(lp2360
I0
atp2361
a(S'/scratch/po21/jz1585/Google-ACT-256/train-new1202/train-400/0-1064.png'
p2362
(lp2363
I0
atp2364
a(S'/scratch/po21/jz1585/Google-ACT-256/train-new1202/train-400/0-330.png'
p2365
(lp2366
I0
atp2367
a(S'/scratch/po21/jz1585/Google-ACT-256/train-new1202/train-400/0-886.png'
p2368
(lp2369
I0
atp2370
a(S'/scratch/po21/jz1585/Google-ACT-256/train-new1202/train-400/0-1493.png'
p2371
(lp2372
I0
atp2373
a(S'/scratch/po21/jz1585/Google-ACT-256/train-new1202/train-400/0-1326.png'
p2374
(lp2375
I0
atp2376
a(S'/scratch/po21/jz1585/Google-ACT-256/train-new1202/train-400/0-1469.png'
p2377
(lp2378
I0
atp2379
a(S'/scratch/po21/jz1585/Google-ACT-256/train-new1202/train-400/1-1841.png'
p2380
(lp2381
I1
atp2382
a(S'/scratch/po21/jz1585/Google-ACT-256/train-new1202/train-400/0-370.png'
p2383
(lp2384
I0
atp2385
a(S'/scratch/po21/jz1585/Google-ACT-256/train-new1202/train-400/0-1134.png'
p2386
(lp2387
I0
atp2388
a(S'/scratch/po21/jz1585/Google-ACT-256/train-new1202/train-400/0-969.png'
p2389
(lp2390
I0
atp2391
a(S'/scratch/po21/jz1585/Google-ACT-256/train-new1202/train-400/1-1140.png'
p2392
(lp2393
I1
atp2394
a(S'/scratch/po21/jz1585/Google-ACT-256/train-new1202/train-400/0-1316.png'
p2395
(lp2396
I0
atp2397
a(S'/scratch/po21/jz1585/Google-ACT-256/train-new1202/train-400/1-509.png'
p2398
(lp2399
I1
atp2400
a(S'/scratch/po21/jz1585/Google-ACT-256/train-new1202/train-400/0-1397.png'
p2401
(lp2402
I0
atp2403
a(S'/scratch/po21/jz1585/Google-ACT-256/train-new1202/train-400/1-1736.png'
p2404
(lp2405
I1
atp2406
a(S'/scratch/po21/jz1585/Google-ACT-256/train-new1202/train-400/0-1353.png'
p2407
(lp2408
I0
atp2409
a(S'/scratch/po21/jz1585/Google-ACT-256/train-new1202/train-400/0-1414.png'
p2410
(lp2411
I0
atp2412
a(S'/scratch/po21/jz1585/Google-ACT-256/train-new1202/train-400/1-489.png'
p2413
(lp2414
I1
atp2415
a(S'/scratch/po21/jz1585/Google-ACT-256/train-new1202/train-400/0-1059.png'
p2416
(lp2417
I0
atp2418
a(S'/scratch/po21/jz1585/Google-ACT-256/train-new1202/train-400/0-483.png'
p2419
(lp2420
I0
atp2421
a(S'/scratch/po21/jz1585/Google-ACT-256/train-new1202/train-400/1-528.png'
p2422
(lp2423
I1
atp2424
a(S'/scratch/po21/jz1585/Google-ACT-256/train-new1202/train-400/1-1564.png'
p2425
(lp2426
I1
atp2427
a(S'/scratch/po21/jz1585/Google-ACT-256/train-new1202/train-400/0-1125.png'
p2428
(lp2429
I0
atp2430
a(S'/scratch/po21/jz1585/Google-ACT-256/train-new1202/train-400/1-652.png'
p2431
(lp2432
I1
atp2433
a(S'/scratch/po21/jz1585/Google-ACT-256/train-new1202/train-400/0-1403.png'
p2434
(lp2435
I0
atp2436
a(S'/scratch/po21/jz1585/Google-ACT-256/train-new1202/train-400/0-1229.png'
p2437
(lp2438
I0
atp2439
a(S'/scratch/po21/jz1585/Google-ACT-256/train-new1202/train-400/1-1161.png'
p2440
(lp2441
I1
atp2442
a(S'/scratch/po21/jz1585/Google-ACT-256/train-new1202/train-400/0-889.png'
p2443
(lp2444
I0
atp2445
a(S'/scratch/po21/jz1585/Google-ACT-256/train-new1202/train-400/1-1291.png'
p2446
(lp2447
I1
atp2448
a(S'/scratch/po21/jz1585/Google-ACT-256/train-new1202/train-400/1-318.png'
p2449
(lp2450
I1
atp2451
a(S'/scratch/po21/jz1585/Google-ACT-256/train-new1202/train-400/0-825.png'
p2452
(lp2453
I0
atp2454
a(S'/scratch/po21/jz1585/Google-ACT-256/train-new1202/train-400/1-1880.png'
p2455
(lp2456
I1
atp2457
a(S'/scratch/po21/jz1585/Google-ACT-256/train-new1202/train-400/0-411.png'
p2458
(lp2459
I0
atp2460
a(S'/scratch/po21/jz1585/Google-ACT-256/train-new1202/train-400/0-1451.png'
p2461
(lp2462
I0
atp2463
a(S'/scratch/po21/jz1585/Google-ACT-256/train-new1202/train-400/1-1309.png'
p2464
(lp2465
I1
atp2466
a(S'/scratch/po21/jz1585/Google-ACT-256/train-new1202/train-400/1-1288.png'
p2467
(lp2468
I1
atp2469
a(S'/scratch/po21/jz1585/Google-ACT-256/train-new1202/train-400/0-838.png'
p2470
(lp2471
I0
atp2472
a(S'/scratch/po21/jz1585/Google-ACT-256/train-new1202/train-400/0-953.png'
p2473
(lp2474
I0
atp2475
a(S'/scratch/po21/jz1585/Google-ACT-256/train-new1202/train-400/0-1485.png'
p2476
(lp2477
I0
atp2478
a(S'/scratch/po21/jz1585/Google-ACT-256/train-new1202/train-400/1-90.png'
p2479
(lp2480
I1
atp2481
a(S'/scratch/po21/jz1585/Google-ACT-256/train-new1202/train-400/0-1226.png'
p2482
(lp2483
I0
atp2484
a(S'/scratch/po21/jz1585/Google-ACT-256/train-new1202/train-400/1-851.png'
p2485
(lp2486
I1
atp2487
a(S'/scratch/po21/jz1585/Google-ACT-256/train-new1202/train-400/0-1183.png'
p2488
(lp2489
I0
atp2490
a(S'/scratch/po21/jz1585/Google-ACT-256/train-new1202/train-400/0-1269.png'
p2491
(lp2492
I0
atp2493
a(S'/scratch/po21/jz1585/Google-ACT-256/train-new1202/train-400/0-197.png'
p2494
(lp2495
I0
atp2496
a(S'/scratch/po21/jz1585/Google-ACT-256/train-new1202/train-400/1-1781.png'
p2497
(lp2498
I1
atp2499
a(S'/scratch/po21/jz1585/Google-ACT-256/train-new1202/train-400/0-910.png'
p2500
(lp2501
I0
atp2502
a(S'/scratch/po21/jz1585/Google-ACT-256/train-new1202/train-400/1-1404.png'
p2503
(lp2504
I1
atp2505
a(S'/scratch/po21/jz1585/Google-ACT-256/train-new1202/train-400/1-1228.png'
p2506
(lp2507
I1
atp2508
a(S'/scratch/po21/jz1585/Google-ACT-256/train-new1202/train-400/0-1473.png'
p2509
(lp2510
I0
atp2511
a(S'/scratch/po21/jz1585/Google-ACT-256/train-new1202/train-400/1-776.png'
p2512
(lp2513
I1
atp2514
a(S'/scratch/po21/jz1585/Google-ACT-256/train-new1202/train-400/0-175.png'
p2515
(lp2516
I0
atp2517
a(S'/scratch/po21/jz1585/Google-ACT-256/train-new1202/train-400/1-961.png'
p2518
(lp2519
I1
atp2520
a(S'/scratch/po21/jz1585/Google-ACT-256/train-new1202/train-400/1-166.png'
p2521
(lp2522
I1
atp2523
a(S'/scratch/po21/jz1585/Google-ACT-256/train-new1202/train-400/0-1168.png'
p2524
(lp2525
I0
atp2526
a(S'/scratch/po21/jz1585/Google-ACT-256/train-new1202/train-400/0-1224.png'
p2527
(lp2528
I0
atp2529
a(S'/scratch/po21/jz1585/Google-ACT-256/train-new1202/train-400/1-311.png'
p2530
(lp2531
I1
atp2532
a(S'/scratch/po21/jz1585/Google-ACT-256/train-new1202/train-400/1-1549.png'
p2533
(lp2534
I1
atp2535
a(S'/scratch/po21/jz1585/Google-ACT-256/train-new1202/train-400/0-956.png'
p2536
(lp2537
I0
atp2538
a(S'/scratch/po21/jz1585/Google-ACT-256/train-new1202/train-400/1-669.png'
p2539
(lp2540
I1
atp2541
a(S'/scratch/po21/jz1585/Google-ACT-256/train-new1202/train-400/1-963.png'
p2542
(lp2543
I1
atp2544
a(S'/scratch/po21/jz1585/Google-ACT-256/train-new1202/train-400/0-382.png'
p2545
(lp2546
I0
atp2547
a(S'/scratch/po21/jz1585/Google-ACT-256/train-new1202/train-400/1-1112.png'
p2548
(lp2549
I1
atp2550
a(S'/scratch/po21/jz1585/Google-ACT-256/train-new1202/train-400/1-202.png'
p2551
(lp2552
I1
atp2553
a.